

Microchip MPLAB XC8 Assembler V2.32 build 20210201212658 
                                                                                               Sat Apr 03 22:55:50 2021

Microchip MPLAB XC8 C Compiler v2.32 (Free license) build 20210201212658 Og1 
     1                           	processor	18F27Q10
     2                           	fnconf	rparam,??,?,0
     3                           	pagewidth 120
     4                           	opt	flic
     5                           	psect	smallconst,global,reloc=2,class=SMALLCONST,delta=1,noexec
     6                           	psect	cinit,global,reloc=2,class=CODE,delta=1
     7                           	psect	bssCOMRAM,global,class=COMRAM,space=1,delta=1,lowdata,noexec
     8                           	psect	bssBANK0,global,class=BANK0,space=1,delta=1,lowdata,noexec
     9                           	psect	cstackBANK0,global,class=BANK0,space=1,delta=1,lowdata,noexec
    10                           	psect	cstackCOMRAM,global,class=COMRAM,space=1,delta=1,lowdata,noexec
    11                           	psect	text0,global,reloc=2,class=CODE,delta=1
    12                           	psect	text1,global,reloc=2,class=CODE,delta=1
    13                           	psect	text2,global,reloc=2,class=CODE,delta=1
    14                           	psect	text3,global,reloc=2,class=CODE,delta=1,group=1
    15                           	psect	text4,global,reloc=2,class=CODE,delta=1,group=1
    16                           	psect	text5,global,reloc=2,class=CODE,delta=1,group=1
    17                           	psect	text6,global,reloc=2,class=CODE,delta=1,group=1
    18                           	psect	text7,global,reloc=2,class=CODE,delta=1,group=1
    19                           	psect	text8,global,reloc=2,class=CODE,delta=1,group=1
    20                           	psect	text9,global,reloc=2,class=CODE,delta=1
    21                           	psect	text10,global,reloc=2,class=CODE,delta=1
    22                           	psect	text11,global,reloc=2,class=CODE,delta=1
    23                           	psect	text12,global,reloc=2,class=CODE,delta=1
    24                           	psect	text13,global,reloc=2,class=CODE,delta=1
    25                           	psect	text14,global,reloc=2,class=CODE,delta=1
    26                           	psect	text15,global,reloc=2,class=CODE,delta=1
    27                           	psect	text16,global,reloc=2,class=CODE,delta=1,group=2
    28                           	psect	text17,global,reloc=2,class=CODE,delta=1,group=1
    29                           	psect	text18,global,reloc=2,class=CODE,delta=1,group=1
    30                           	psect	text19,global,reloc=2,class=CODE,delta=1,group=1
    31                           	psect	intcode,global,reloc=2,class=CODE,delta=1
    32                           	psect	text21,global,reloc=2,class=CODE,delta=1
    33                           	psect	text22,global,reloc=2,class=CODE,delta=1
    34                           	psect	text23,global,reloc=2,class=CODE,delta=1,group=2
    35                           	psect	text24,global,reloc=2,class=CODE,delta=1,group=2
    36                           	psect	text25,global,reloc=2,class=CODE,delta=1,group=2
    37                           	psect	text26,global,reloc=2,class=CODE,delta=1,group=2
    38                           	psect	text27,global,reloc=2,class=CODE,delta=1
    39                           	psect	text28,global,reloc=2,class=CODE,delta=1
    40                           	psect	text29,global,reloc=2,class=CODE,delta=1
    41                           	psect	text30,global,reloc=2,class=CODE,delta=1
    42                           	psect	intsave_regs,global,class=BIGRAM,space=1,delta=1,noexec
    43                           	psect	rparam,global,class=COMRAM,space=1,delta=1,noexec
    44                           	psect	temp,global,ovrld,common,class=COMRAM,space=1,delta=1
    45                           	psect	idloc,global,abs,ovrld,class=IDLOC,space=5,delta=1,noexec
    46                           	psect	config,global,abs,ovrld,class=CONFIG,space=4,delta=1,noexec
    47  0000                     
    48                           ; Version 2.30
    49                           ; Generated 20/08/2020 GMT
    50                           ; 
    51                           ; Copyright © 2020, Microchip Technology Inc. and its subsidiaries ("Microchip")
    52                           ; All rights reserved.
    53                           ; 
    54                           ; This software is developed by Microchip Technology Inc. and its subsidiaries ("Microch
      +                          ip").
    55                           ; 
    56                           ; Redistribution and use in source and binary forms, with or without modification, are
    57                           ; permitted provided that the following conditions are met:
    58                           ; 
    59                           ;     1. Redistributions of source code must retain the above copyright notice, this lis
      +                          t of
    60                           ;        conditions and the following disclaimer.
    61                           ; 
    62                           ;     2. Redistributions in binary form must reproduce the above copyright notice, this 
      +                          list
    63                           ;        of conditions and the following disclaimer in the documentation and/or other
    64                           ;        materials provided with the distribution. Publication is not required when
    65                           ;        this file is used in an embedded application.
    66                           ; 
    67                           ;     3. Microchip's name may not be used to endorse or promote products derived from th
      +                          is
    68                           ;        software without specific prior written permission.
    69                           ; 
    70                           ; THIS SOFTWARE IS PROVIDED BY MICROCHIP "AS IS" AND ANY EXPRESS OR IMPLIED WARRANTIES,
    71                           ; INCLUDING, BUT NOT LIMITED TO, THE IMPLIED WARRANTIES OF MERCHANTABILITY AND FITNESS F
      +                          OR
    72                           ; PURPOSE ARE DISCLAIMED.  IN NO EVENT SHALL MICROCHIP BE LIABLE FOR ANY DIRECT, INDIREC
      +                          T,
    73                           ; INCIDENTAL, SPECIAL, EXEMPLARY, OR CONSEQUENTIAL DAMAGES (INCLUDING BUT NOT LIMITED TO
    74                           ; PROCUREMENT OF SUBSTITUTE GOODS OR SERVICES; LOSS OF USE, DATA OR PROFITS; OR BUSINESS
    75                           ; INTERRUPTION) HOWSOEVER CAUSED AND ON ANY THEORY OF LIABILITY, WHETHER IN CONTRACT, ST
      +                          RICT
    76                           ; LIABILITY, OR TORT (INCLUDING NEGLIGENCE OR OTHERWISE) ARISING IN ANY WAY OUT OF THE U
      +                          SE OF
    77                           ; THIS SOFTWARE, EVEN IF ADVISED OF THE POSSIBILITY OF SUCH DAMAGE.
    78                           ; 
    79                           ; 
    80                           ; Code-generator required, PIC18F27Q10 Definitions
    81                           ; 
    82                           ; SFR Addresses
    83  0000                     
    84                           	psect	smallconst
    85  000F00                     __psmallconst:
    86                           	callstack 0
    87  000F00  00                 	db	0
    88  000F01                     DGM_Effect@factor:
    89                           	callstack 0
    90  000F01  0001               	dw	1
    91  000F03  0000               	dw	0
    92  000F05  000A               	dw	10
    93  000F07  0000               	dw	0
    94  000F09  0064               	dw	100
    95  000F0B  0000               	dw	0
    96  000F0D  03E8               	dw	1000
    97  000F0F  0000               	dw	0
    98  000F11  2710               	dw	10000
    99  000F13  0000               	dw	0
   100  000F15  86A0               	dw	34464
   101  000F17  0001               	dw	1
   102  000F19  4240               	dw	16960
   103  000F1B  000F               	dw	15
   104  000F1D                     __end_ofDGM_Effect@factor:
   105                           	callstack 0
   106  0000                     _RC7PPS	set	3833
   107  0000                     _RC4PPS	set	3830
   108  0000                     _RX1PPS	set	3760
   109  0000                     _PPSLOCK	set	3739
   110  0000                     _OSCFRQ	set	3801
   111  0000                     _OSCCON1	set	3795
   112  0000                     _RCIE	set	30213
   113  0000                     _RCIF	set	30277
   114  0000                     _TMR0IF	set	30253
   115  0000                     _TMR0IE	set	30189
   116  0000                     _ANSELC	set	3868
   117  0000                     _ANSELB	set	3860
   118  0000                     _ANSELA	set	3852
   119  0000                     _RCREG	set	3992
   120  0000                     _RC1STAbits	set	3996
   121  0000                     _TXREG	set	3993
   122  0000                     _TX1STAbits	set	3997
   123  0000                     _SPBRG	set	3994
   124  0000                     _RCSTA	set	3996
   125  0000                     _TXSTA	set	3997
   126  0000                     _PWM4DCL	set	3999
   127  0000                     _PWM4DCH	set	4000
   128  0000                     _PWM3DCL	set	4002
   129  0000                     _PWM3DCH	set	4003
   130  0000                     _TMR0L	set	4050
   131  0000                     _TMR0H	set	4051
   132  0000                     _INTCONbits	set	4082
   133  0000                     _PWM4CON	set	4001
   134  0000                     _CCPTMRSbits	set	4013
   135  0000                     _PWM3CON	set	4004
   136  0000                     _T2CON	set	4028
   137  0000                     _T2PR	set	4027
   138  0000                     _T2CLKCON	set	4030
   139  0000                     _T0CON1	set	4053
   140  0000                     _T0CON0	set	4052
   141  0000                     _TRISC	set	3977
   142  0000                     _TRISB	set	3976
   143  0000                     _TRISA	set	3975
   144  0000                     _LATC1	set	31777
   145  0000                     _LATC2	set	31778
   146  0000                     _LATC3	set	31779
   147  0000                     _RC6	set	31862
   148  0000                     _LATC5	set	31781
   149  0000                     _PEIE	set	32662
   150  000F1D  00                 	db	0	; dummy byte at the end
   151  0000                     
   152                           ; #config settings
   153                           
   154                           	psect	cinit
   155  00356C                     __pcinit:
   156                           	callstack 0
   157  00356C                     start_initialization:
   158                           	callstack 0
   159  00356C                     __initialization:
   160                           	callstack 0
   161                           
   162                           ; Clear objects allocated to BANK0 (19 bytes)
   163  00356C  EE00  F0BE         	lfsr	0,__pbssBANK0
   164  003570  0E13               	movlw	19
   165  003572                     clear_0:
   166  003572  6AEE               	clrf	postinc0,c
   167  003574  06E8               	decf	wreg,f,c
   168  003576  E1FD               	bnz	clear_0
   169                           
   170                           ; Clear objects allocated to COMRAM (13 bytes)
   171  003578  EE00  F03E         	lfsr	0,__pbssCOMRAM
   172  00357C  0E0D               	movlw	13
   173  00357E                     clear_1:
   174  00357E  6AEE               	clrf	postinc0,c
   175  003580  06E8               	decf	wreg,f,c
   176  003582  E1FD               	bnz	clear_1
   177  003584                     end_of_initialization:
   178                           	callstack 0
   179  003584                     __end_of__initialization:
   180                           	callstack 0
   181  003584  904B               	bcf	int$flags,0,c	;clear compiler interrupt flag (level 1)
   182  003586  924B               	bcf	int$flags,1,c	;clear compiler interrupt flag (level 2)
   183  003588  0100               	movlb	0
   184  00358A  EFA5  F010         	goto	_main	;jump to C main() function
   185                           
   186                           	psect	bssCOMRAM
   187  00003E                     __pbssCOMRAM:
   188                           	callstack 0
   189  00003E                     RTC_Read@cnt:
   190                           	callstack 0
   191  00003E                     	ds	2
   192  000040                     _g_t0_f:
   193                           	callstack 0
   194  000040                     	ds	1
   195  000041                     RTC_Read@str:
   196                           	callstack 0
   197  000041                     	ds	10
   198                           
   199                           	psect	bssBANK0
   200  0000BE                     __pbssBANK0:
   201                           	callstack 0
   202  0000BE                     _g_time:
   203                           	callstack 0
   204  0000BE                     	ds	4
   205  0000C2                     T0_int2@cnt:
   206                           	callstack 0
   207  0000C2                     	ds	2
   208  0000C4                     T0_int@cnt:
   209                           	callstack 0
   210  0000C4                     	ds	2
   211  0000C6                     Duty_Control@ntc:
   212                           	callstack 0
   213  0000C6                     	ds	2
   214  0000C8                     Duty_Control@led:
   215                           	callstack 0
   216  0000C8                     	ds	2
   217  0000CA                     T0_int2@flag:
   218                           	callstack 0
   219  0000CA                     	ds	1
   220  0000CB                     T0_int@flag:
   221                           	callstack 0
   222  0000CB                     	ds	1
   223  0000CC                     _dgm_f:
   224                           	callstack 0
   225  0000CC                     	ds	1
   226  0000CD                     _seed:
   227                           	callstack 0
   228  0000CD                     	ds	4
   229                           
   230                           	psect	cstackBANK0
   231  000060                     __pcstackBANK0:
   232                           	callstack 0
   233  000060                     ?___lmul:
   234                           	callstack 0
   235  000060                     ?___lldiv:
   236                           	callstack 0
   237  000060                     ?___xxtofl:
   238                           	callstack 0
   239  000060                     Set_PWM_Duty@duty:
   240                           	callstack 0
   241  000060                     T0_int@val:
   242                           	callstack 0
   243  000060                     T0_int2@val:
   244                           	callstack 0
   245  000060                     IC595_Write@data:
   246                           	callstack 0
   247  000060                     ___lmul@multiplier:
   248                           	callstack 0
   249  000060                     ___lldiv@dividend:
   250                           	callstack 0
   251  000060                     ___xxtofl@val:
   252                           	callstack 0
   253                           
   254                           ; 4 bytes @ 0x0
   255  000060                     	ds	2
   256  000062                     ??_Set_PWM_Duty:
   257  000062                     ??_T0_int:
   258  000062                     ??_T0_int2:
   259                           
   260                           ; 1 bytes @ 0x2
   261  000062                     	ds	1
   262  000063                     ??_IC595_Write:
   263                           
   264                           ; 1 bytes @ 0x3
   265  000063                     	ds	1
   266  000064                     ??___xxtofl:
   267  000064                     Set_PWM_Duty@ch:
   268                           	callstack 0
   269  000064                     ___lmul@multiplicand:
   270                           	callstack 0
   271  000064                     ___lldiv@divisor:
   272                           	callstack 0
   273                           
   274                           ; 4 bytes @ 0x4
   275  000064                     	ds	1
   276  000065                     Duty_Control@ntc_limit:
   277                           	callstack 0
   278                           
   279                           ; 2 bytes @ 0x5
   280  000065                     	ds	2
   281  000067                     IC595_Write@i:
   282                           	callstack 0
   283                           
   284                           ; 2 bytes @ 0x7
   285  000067                     	ds	1
   286  000068                     ___xxtofl@sign:
   287                           	callstack 0
   288  000068                     ___lmul@product:
   289                           	callstack 0
   290  000068                     ___lldiv@quotient:
   291                           	callstack 0
   292                           
   293                           ; 4 bytes @ 0x8
   294  000068                     	ds	1
   295  000069                     ___xxtofl@exp:
   296                           	callstack 0
   297                           
   298                           ; 1 bytes @ 0x9
   299  000069                     	ds	1
   300  00006A                     ___xxtofl@arg:
   301                           	callstack 0
   302                           
   303                           ; 4 bytes @ 0xA
   304  00006A                     	ds	2
   305  00006C                     ?_rand:
   306                           	callstack 0
   307  00006C                     ___lldiv@counter:
   308                           	callstack 0
   309                           
   310                           ; 1 bytes @ 0xC
   311  00006C                     	ds	1
   312  00006D                     ?___llmod:
   313                           	callstack 0
   314  00006D                     ___llmod@dividend:
   315                           	callstack 0
   316                           
   317                           ; 4 bytes @ 0xD
   318  00006D                     	ds	1
   319  00006E                     ??_rand:
   320  00006E                     ?___flmul:
   321                           	callstack 0
   322  00006E                     ___flge@ff1:
   323                           	callstack 0
   324  00006E                     ___flmul@b:
   325                           	callstack 0
   326                           
   327                           ; 4 bytes @ 0xE
   328  00006E                     	ds	3
   329  000071                     ___llmod@divisor:
   330                           	callstack 0
   331                           
   332                           ; 4 bytes @ 0x11
   333  000071                     	ds	1
   334  000072                     ___flge@ff2:
   335                           	callstack 0
   336  000072                     ___flmul@a:
   337                           	callstack 0
   338                           
   339                           ; 4 bytes @ 0x12
   340  000072                     	ds	3
   341  000075                     ___llmod@counter:
   342                           	callstack 0
   343                           
   344                           ; 1 bytes @ 0x15
   345  000075                     	ds	1
   346  000076                     ??___flmul:
   347  000076                     ??___flge:
   348  000076                     ?_DGM_Effect:
   349                           	callstack 0
   350  000076                     DGM_Effect@time:
   351                           	callstack 0
   352                           
   353                           ; 4 bytes @ 0x16
   354  000076                     	ds	4
   355  00007A                     DGM_Effect@val:
   356                           	callstack 0
   357  00007A                     ___flmul@sign:
   358                           	callstack 0
   359                           
   360                           ; 1 bytes @ 0x1A
   361  00007A                     	ds	1
   362  00007B                     ??_DGM_Effect:
   363  00007B                     ___flmul@grs:
   364                           	callstack 0
   365                           
   366                           ; 4 bytes @ 0x1B
   367  00007B                     	ds	4
   368  00007F                     ___flmul@aexp:
   369                           	callstack 0
   370  00007F                     _DGM_Effect$1004:
   371                           	callstack 0
   372                           
   373                           ; 4 bytes @ 0x1F
   374  00007F                     	ds	1
   375  000080                     ___flmul@bexp:
   376                           	callstack 0
   377                           
   378                           ; 1 bytes @ 0x20
   379  000080                     	ds	1
   380  000081                     ___flmul@prod:
   381                           	callstack 0
   382                           
   383                           ; 4 bytes @ 0x21
   384  000081                     	ds	2
   385  000083                     DGM_Effect@data:
   386                           	callstack 0
   387                           
   388                           ; 4 bytes @ 0x23
   389  000083                     	ds	2
   390  000085                     ___flmul@temp:
   391                           	callstack 0
   392                           
   393                           ; 2 bytes @ 0x25
   394  000085                     	ds	2
   395  000087                     ?___fldiv:
   396                           	callstack 0
   397  000087                     NTC_Write@data:
   398                           	callstack 0
   399  000087                     ___fldiv@b:
   400                           	callstack 0
   401                           
   402                           ; 4 bytes @ 0x27
   403  000087                     	ds	4
   404  00008B                     ??_NTC_Write:
   405  00008B                     ___fldiv@a:
   406                           	callstack 0
   407                           
   408                           ; 4 bytes @ 0x2B
   409  00008B                     	ds	4
   410  00008F                     ??___fldiv:
   411  00008F                     NTC_Write@buff:
   412                           	callstack 0
   413                           
   414                           ; 6 bytes @ 0x2F
   415  00008F                     	ds	4
   416  000093                     ___fldiv@rem:
   417                           	callstack 0
   418                           
   419                           ; 4 bytes @ 0x33
   420  000093                     	ds	2
   421  000095                     NTC_Write@temp:
   422                           	callstack 0
   423                           
   424                           ; 3 bytes @ 0x35
   425  000095                     	ds	2
   426  000097                     ___fldiv@sign:
   427                           	callstack 0
   428                           
   429                           ; 1 bytes @ 0x37
   430  000097                     	ds	1
   431  000098                     ___fldiv@new_exp:
   432                           	callstack 0
   433                           
   434                           ; 2 bytes @ 0x38
   435  000098                     	ds	2
   436  00009A                     ___fldiv@grs:
   437                           	callstack 0
   438                           
   439                           ; 4 bytes @ 0x3A
   440  00009A                     	ds	4
   441  00009E                     ___fldiv@bexp:
   442                           	callstack 0
   443                           
   444                           ; 1 bytes @ 0x3E
   445  00009E                     	ds	1
   446  00009F                     ___fldiv@aexp:
   447                           	callstack 0
   448                           
   449                           ; 1 bytes @ 0x3F
   450  00009F                     	ds	1
   451  0000A0                     ?___fladd:
   452                           	callstack 0
   453  0000A0                     ___fladd@b:
   454                           	callstack 0
   455                           
   456                           ; 4 bytes @ 0x40
   457  0000A0                     	ds	4
   458  0000A4                     ___fladd@a:
   459                           	callstack 0
   460                           
   461                           ; 4 bytes @ 0x44
   462  0000A4                     	ds	4
   463  0000A8                     ??___fladd:
   464                           
   465                           ; 1 bytes @ 0x48
   466  0000A8                     	ds	4
   467  0000AC                     ___fladd@signs:
   468                           	callstack 0
   469                           
   470                           ; 1 bytes @ 0x4C
   471  0000AC                     	ds	1
   472  0000AD                     ___fladd@aexp:
   473                           	callstack 0
   474                           
   475                           ; 1 bytes @ 0x4D
   476  0000AD                     	ds	1
   477  0000AE                     ___fladd@bexp:
   478                           	callstack 0
   479                           
   480                           ; 1 bytes @ 0x4E
   481  0000AE                     	ds	1
   482  0000AF                     ___fladd@grs:
   483                           	callstack 0
   484                           
   485                           ; 1 bytes @ 0x4F
   486  0000AF                     	ds	1
   487  0000B0                     ?___fltol:
   488                           	callstack 0
   489  0000B0                     ___fltol@f1:
   490                           	callstack 0
   491                           
   492                           ; 4 bytes @ 0x50
   493  0000B0                     	ds	4
   494  0000B4                     ??___fltol:
   495                           
   496                           ; 1 bytes @ 0x54
   497  0000B4                     	ds	4
   498  0000B8                     ___fltol@sign1:
   499                           	callstack 0
   500                           
   501                           ; 1 bytes @ 0x58
   502  0000B8                     	ds	1
   503  0000B9                     ___fltol@exp1:
   504                           	callstack 0
   505                           
   506                           ; 1 bytes @ 0x59
   507  0000B9                     	ds	1
   508  0000BA                     UART_Init@baud:
   509                           	callstack 0
   510                           
   511                           ; 2 bytes @ 0x5A
   512  0000BA                     	ds	2
   513  0000BC                     main@val:
   514                           	callstack 0
   515                           
   516                           ; 1 bytes @ 0x5C
   517  0000BC                     	ds	1
   518  0000BD                     main@cnt:
   519                           	callstack 0
   520                           
   521                           ; 1 bytes @ 0x5D
   522  0000BD                     	ds	1
   523                           
   524                           	psect	cstackCOMRAM
   525  000001                     __pcstackCOMRAM:
   526                           	callstack 0
   527  000001                     ?_isspace:
   528                           	callstack 0
   529  000001                     ?_isdigit:
   530                           	callstack 0
   531  000001                     ?i2___lmul:
   532                           	callstack 0
   533  000001                     ?i2___lldiv:
   534                           	callstack 0
   535  000001                     isdigit@c:
   536                           	callstack 0
   537  000001                     isspace@c:
   538                           	callstack 0
   539  000001                     memset@dest:
   540                           	callstack 0
   541  000001                     i2___lmul@multiplier:
   542                           	callstack 0
   543  000001                     i2___lldiv@dividend:
   544                           	callstack 0
   545                           
   546                           ; 4 bytes @ 0x0
   547  000001                     	ds	2
   548  000003                     ??_isspace:
   549  000003                     ??_isdigit:
   550  000003                     memset@c:
   551                           	callstack 0
   552                           
   553                           ; 2 bytes @ 0x2
   554  000003                     	ds	2
   555  000005                     memset@n:
   556                           	callstack 0
   557  000005                     i2___lmul@multiplicand:
   558                           	callstack 0
   559  000005                     i2___lldiv@divisor:
   560                           	callstack 0
   561                           
   562                           ; 4 bytes @ 0x4
   563  000005                     	ds	2
   564  000007                     ??_memset:
   565  000007                     _isspace$801:
   566                           	callstack 0
   567                           
   568                           ; 1 bytes @ 0x6
   569  000007                     	ds	2
   570  000009                     memset@k:
   571                           	callstack 0
   572  000009                     i2___lmul@product:
   573                           	callstack 0
   574  000009                     i2___lldiv@quotient:
   575                           	callstack 0
   576                           
   577                           ; 4 bytes @ 0x8
   578  000009                     	ds	2
   579  00000B                     memset@s:
   580                           	callstack 0
   581                           
   582                           ; 2 bytes @ 0xA
   583  00000B                     	ds	2
   584  00000D                     ?_atol:
   585                           	callstack 0
   586  00000D                     i2___lldiv@counter:
   587                           	callstack 0
   588  00000D                     atol@s:
   589                           	callstack 0
   590                           
   591                           ; 2 bytes @ 0xC
   592  00000D                     	ds	1
   593  00000E                     ?i2___llmod:
   594                           	callstack 0
   595  00000E                     i2___llmod@dividend:
   596                           	callstack 0
   597                           
   598                           ; 4 bytes @ 0xD
   599  00000E                     	ds	3
   600  000011                     ??_atol:
   601                           
   602                           ; 1 bytes @ 0x10
   603  000011                     	ds	1
   604  000012                     i2___llmod@divisor:
   605                           	callstack 0
   606                           
   607                           ; 4 bytes @ 0x11
   608  000012                     	ds	4
   609  000016                     i2___llmod@counter:
   610                           	callstack 0
   611  000016                     atol@neg:
   612                           	callstack 0
   613                           
   614                           ; 2 bytes @ 0x15
   615  000016                     	ds	2
   616  000018                     _atol$783:
   617                           	callstack 0
   618                           
   619                           ; 2 bytes @ 0x17
   620  000018                     	ds	2
   621  00001A                     _atol$785:
   622                           	callstack 0
   623                           
   624                           ; 2 bytes @ 0x19
   625  00001A                     	ds	2
   626  00001C                     _atol$784:
   627                           	callstack 0
   628                           
   629                           ; 1 bytes @ 0x1B
   630  00001C                     	ds	1
   631  00001D                     atol@n:
   632                           	callstack 0
   633                           
   634                           ; 4 bytes @ 0x1C
   635  00001D                     	ds	4
   636  000021                     ?_Convert_data:
   637                           	callstack 0
   638  000021                     Convert_data@data:
   639                           	callstack 0
   640                           
   641                           ; 4 bytes @ 0x20
   642  000021                     	ds	4
   643  000025                     ??_Convert_data:
   644                           
   645                           ; 1 bytes @ 0x24
   646  000025                     	ds	8
   647  00002D                     Convert_data@sec:
   648                           	callstack 0
   649                           
   650                           ; 4 bytes @ 0x2C
   651  00002D                     	ds	4
   652  000031                     Convert_data@hour:
   653                           	callstack 0
   654                           
   655                           ; 4 bytes @ 0x30
   656  000031                     	ds	4
   657  000035                     Convert_data@min:
   658                           	callstack 0
   659                           
   660                           ; 4 bytes @ 0x34
   661  000035                     	ds	4
   662  000039                     ??_RTC_Read:
   663                           
   664                           ; 1 bytes @ 0x38
   665  000039                     	ds	2
   666  00003B                     RTC_Read@data:
   667                           	callstack 0
   668                           
   669                           ; 1 bytes @ 0x3A
   670  00003B                     	ds	1
   671  00003C                     ??_isr:
   672                           
   673                           ; 1 bytes @ 0x3B
   674  00003C                     	ds	2
   675                           
   676 ;;
   677 ;;Main: autosize = 0, tempsize = 0, incstack = 0, save=0
   678 ;;
   679 ;; *************** function _main *****************
   680 ;; Defined at:
   681 ;;		line 110 in file "main.c"
   682 ;; Parameters:    Size  Location     Type
   683 ;;		None
   684 ;; Auto vars:     Size  Location     Type
   685 ;;  cnt             1   93[BANK0 ] unsigned char 
   686 ;;  val             1   92[BANK0 ] unsigned char 
   687 ;; Return value:  Size  Location     Type
   688 ;;                  1    wreg      void 
   689 ;; Registers used:
   690 ;;		wreg, status,2, status,0, tblptrl, tblptrh, tblptru, prodl, prodh, cstack
   691 ;; Tracked objects:
   692 ;;		On entry : 0/0
   693 ;;		On exit  : 0/0
   694 ;;		Unchanged: 0/0
   695 ;; Data sizes:     COMRAM   BANK0   BANK1   BANK2   BANK3   BANK4   BANK5   BANK6   BANK7   BANK8   BANK9  BANK10  BANK1
      +1  BANK12  BANK13  BANK14
   696 ;;      Params:         0       0       0       0       0       0       0       0       0       0       0       0       
      +0       0       0       0
   697 ;;      Locals:         0       2       0       0       0       0       0       0       0       0       0       0       
      +0       0       0       0
   698 ;;      Temps:          0       0       0       0       0       0       0       0       0       0       0       0       
      +0       0       0       0
   699 ;;      Totals:         0       2       0       0       0       0       0       0       0       0       0       0       
      +0       0       0       0
   700 ;;Total ram usage:        2 bytes
   701 ;; Hardware stack levels required when called: 7
   702 ;; This function calls:
   703 ;;		_DGM_Effect
   704 ;;		_Duty_Control
   705 ;;		_NTC_Write
   706 ;;		_T0_int
   707 ;;		_T0_int2
   708 ;;		___flge
   709 ;;		___xxtofl
   710 ;;		_init
   711 ;; This function is called by:
   712 ;;		Startup code after reset
   713 ;; This function uses a non-reentrant model
   714 ;;
   715                           
   716                           	psect	text0
   717  00214A                     __ptext0:
   718                           	callstack 0
   719  00214A                     _main:
   720                           	callstack 24
   721  00214A                     
   722                           ;main.c: 112:     uint8_t cnt = 0;
   723  00214A  0E00               	movlw	0
   724  00214C  0100               	movlb	0	; () banked
   725  00214E  6FBD               	movwf	main@cnt& (0+255),b
   726  002150                     
   727                           ; BSR set to: 0
   728                           ;main.c: 115:     init();
   729  002150  ECE2  F016         	call	_init	;wreg free
   730  002154                     l3120:
   731                           
   732                           ;main.c: 118:         if (T0_int(2)) {
   733  002154  0E00               	movlw	0
   734  002156  0100               	movlb	0	; () banked
   735  002158  6F61               	movwf	(T0_int@val+1)& (0+255),b
   736  00215A  0E02               	movlw	2
   737  00215C  6F60               	movwf	T0_int@val& (0+255),b
   738  00215E  EC74  F01A         	call	_T0_int	;wreg free
   739  002162  0900               	iorlw	0
   740  002164  B4D8               	btfsc	status,2,c
   741  002166  EFB7  F010         	goto	u3421
   742  00216A  EFB9  F010         	goto	u3420
   743  00216E                     u3421:
   744  00216E  EFBB  F010         	goto	l3124
   745  002172                     u3420:
   746  002172                     
   747                           ;main.c: 119:             Duty_Control();
   748  002172  EC8E  F017         	call	_Duty_Control	;wreg free
   749  002176                     l3124:
   750                           
   751                           ;main.c: 122:         if (LATC5) {
   752  002176  AA84               	btfss	3972,5,c	;volatile
   753  002178  EFC0  F010         	goto	u3431
   754  00217C  EFC2  F010         	goto	u3430
   755  002180                     u3431:
   756  002180  EFEF  F011         	goto	l3162
   757  002184                     u3430:
   758  002184                     
   759                           ;main.c: 123:             if (T0_int2(50)) {
   760  002184  0E00               	movlw	0
   761  002186  0100               	movlb	0	; () banked
   762  002188  6F61               	movwf	(T0_int2@val+1)& (0+255),b
   763  00218A  0E32               	movlw	50
   764  00218C  6F60               	movwf	T0_int2@val& (0+255),b
   765  00218E  EC4E  F01A         	call	_T0_int2	;wreg free
   766  002192  0900               	iorlw	0
   767  002194  B4D8               	btfsc	status,2,c
   768  002196  EFCF  F010         	goto	u3441
   769  00219A  EFD1  F010         	goto	u3440
   770  00219E                     u3441:
   771  00219E  EFAA  F010         	goto	l3120
   772  0021A2                     u3440:
   773  0021A2                     
   774                           ;main.c: 124:                 if (dgm_f) {
   775  0021A2  0100               	movlb	0	; () banked
   776  0021A4  51CC               	movf	_dgm_f& (0+255),w,b
   777  0021A6  B4D8               	btfsc	status,2,c
   778  0021A8  EFD8  F010         	goto	u3451
   779  0021AC  EFDA  F010         	goto	u3450
   780  0021B0                     u3451:
   781  0021B0  EFE3  F011         	goto	l3160
   782  0021B4                     u3450:
   783  0021B4                     
   784                           ; BSR set to: 0
   785                           ;main.c: 125:                     cnt++;
   786  0021B4  2BBD               	incf	main@cnt& (0+255),f,b
   787  0021B6                     
   788                           ; BSR set to: 0
   789                           ;main.c: 127:                     if (cnt < (3.5 * 100) / 5) {
   790  0021B6  51BD               	movf	main@cnt& (0+255),w,b
   791  0021B8  6F60               	movwf	___xxtofl@val& (0+255),b
   792  0021BA  6B61               	clrf	(___xxtofl@val+1)& (0+255),b
   793  0021BC  6B62               	clrf	(___xxtofl@val+2)& (0+255),b
   794  0021BE  6B63               	clrf	(___xxtofl@val+3)& (0+255),b
   795  0021C0  0E01               	movlw	1
   796  0021C2  ECEA  F012         	call	___xxtofl
   797  0021C6  C060  F06E         	movff	?___xxtofl,___flge@ff1
   798  0021CA  C061  F06F         	movff	?___xxtofl+1,___flge@ff1+1
   799  0021CE  C062  F070         	movff	?___xxtofl+2,___flge@ff1+2
   800  0021D2  C063  F071         	movff	?___xxtofl+3,___flge@ff1+3
   801  0021D6  0E00               	movlw	0
   802  0021D8  0100               	movlb	0	; () banked
   803  0021DA  6F72               	movwf	___flge@ff2& (0+255),b
   804  0021DC  0E00               	movlw	0
   805  0021DE  6F73               	movwf	(___flge@ff2+1)& (0+255),b
   806  0021E0  0E8C               	movlw	140
   807  0021E2  6F74               	movwf	(___flge@ff2+2)& (0+255),b
   808  0021E4  0E42               	movlw	66
   809  0021E6  6F75               	movwf	(___flge@ff2+3)& (0+255),b
   810  0021E8  EC5F  F016         	call	___flge	;wreg free
   811  0021EC  0100               	movlb	0	; () banked
   812  0021EE  B0D8               	btfsc	status,0,c
   813  0021F0  EFFC  F010         	goto	u3461
   814  0021F4  EFFE  F010         	goto	u3460
   815  0021F8                     u3461:
   816  0021F8  EF02  F011         	goto	l3136
   817  0021FC                     u3460:
   818  0021FC                     
   819                           ; BSR set to: 0
   820                           ;main.c: 128:                         val = 6;
   821  0021FC  0E06               	movlw	6
   822  0021FE  6FBC               	movwf	main@val& (0+255),b
   823                           
   824                           ;main.c: 129:                     }
   825  002200  EFCB  F011         	goto	l3158
   826  002204                     l3136:
   827                           
   828                           ; BSR set to: 0
   829  002204  51BD               	movf	main@cnt& (0+255),w,b
   830  002206  6F60               	movwf	___xxtofl@val& (0+255),b
   831  002208  6B61               	clrf	(___xxtofl@val+1)& (0+255),b
   832  00220A  6B62               	clrf	(___xxtofl@val+2)& (0+255),b
   833  00220C  6B63               	clrf	(___xxtofl@val+3)& (0+255),b
   834  00220E  0E01               	movlw	1
   835  002210  ECEA  F012         	call	___xxtofl
   836  002214  C060  F06E         	movff	?___xxtofl,___flge@ff1
   837  002218  C061  F06F         	movff	?___xxtofl+1,___flge@ff1+1
   838  00221C  C062  F070         	movff	?___xxtofl+2,___flge@ff1+2
   839  002220  C063  F071         	movff	?___xxtofl+3,___flge@ff1+3
   840  002224  0E00               	movlw	0
   841  002226  0100               	movlb	0	; () banked
   842  002228  6F72               	movwf	___flge@ff2& (0+255),b
   843  00222A  0E00               	movlw	0
   844  00222C  6F73               	movwf	(___flge@ff2+1)& (0+255),b
   845  00222E  0E98               	movlw	152
   846  002230  6F74               	movwf	(___flge@ff2+2)& (0+255),b
   847  002232  0E42               	movlw	66
   848  002234  6F75               	movwf	(___flge@ff2+3)& (0+255),b
   849  002236  EC5F  F016         	call	___flge	;wreg free
   850  00223A  0100               	movlb	0	; () banked
   851  00223C  B0D8               	btfsc	status,0,c
   852  00223E  EF23  F011         	goto	u3471
   853  002242  EF25  F011         	goto	u3470
   854  002246                     u3471:
   855  002246  EF29  F011         	goto	l3140
   856  00224A                     u3470:
   857  00224A                     
   858                           ; BSR set to: 0
   859                           ;main.c: 131:                         val = 5;
   860  00224A  0E05               	movlw	5
   861  00224C  6FBC               	movwf	main@val& (0+255),b
   862                           
   863                           ;main.c: 132:                     }
   864  00224E  EFCB  F011         	goto	l3158
   865  002252                     l3140:
   866                           
   867                           ; BSR set to: 0
   868  002252  51BD               	movf	main@cnt& (0+255),w,b
   869  002254  6F60               	movwf	___xxtofl@val& (0+255),b
   870  002256  6B61               	clrf	(___xxtofl@val+1)& (0+255),b
   871  002258  6B62               	clrf	(___xxtofl@val+2)& (0+255),b
   872  00225A  6B63               	clrf	(___xxtofl@val+3)& (0+255),b
   873  00225C  0E01               	movlw	1
   874  00225E  ECEA  F012         	call	___xxtofl
   875  002262  C060  F06E         	movff	?___xxtofl,___flge@ff1
   876  002266  C061  F06F         	movff	?___xxtofl+1,___flge@ff1+1
   877  00226A  C062  F070         	movff	?___xxtofl+2,___flge@ff1+2
   878  00226E  C063  F071         	movff	?___xxtofl+3,___flge@ff1+3
   879  002272  0E00               	movlw	0
   880  002274  0100               	movlb	0	; () banked
   881  002276  6F72               	movwf	___flge@ff2& (0+255),b
   882  002278  0E00               	movlw	0
   883  00227A  6F73               	movwf	(___flge@ff2+1)& (0+255),b
   884  00227C  0EA4               	movlw	164
   885  00227E  6F74               	movwf	(___flge@ff2+2)& (0+255),b
   886  002280  0E42               	movlw	66
   887  002282  6F75               	movwf	(___flge@ff2+3)& (0+255),b
   888  002284  EC5F  F016         	call	___flge	;wreg free
   889  002288  0100               	movlb	0	; () banked
   890  00228A  B0D8               	btfsc	status,0,c
   891  00228C  EF4A  F011         	goto	u3481
   892  002290  EF4C  F011         	goto	u3480
   893  002294                     u3481:
   894  002294  EF50  F011         	goto	l3144
   895  002298                     u3480:
   896  002298                     
   897                           ; BSR set to: 0
   898                           ;main.c: 134:                         val = 4;
   899  002298  0E04               	movlw	4
   900  00229A  6FBC               	movwf	main@val& (0+255),b
   901                           
   902                           ;main.c: 135:                     }
   903  00229C  EFCB  F011         	goto	l3158
   904  0022A0                     l3144:
   905                           
   906                           ; BSR set to: 0
   907  0022A0  51BD               	movf	main@cnt& (0+255),w,b
   908  0022A2  6F60               	movwf	___xxtofl@val& (0+255),b
   909  0022A4  6B61               	clrf	(___xxtofl@val+1)& (0+255),b
   910  0022A6  6B62               	clrf	(___xxtofl@val+2)& (0+255),b
   911  0022A8  6B63               	clrf	(___xxtofl@val+3)& (0+255),b
   912  0022AA  0E01               	movlw	1
   913  0022AC  ECEA  F012         	call	___xxtofl
   914  0022B0  C060  F06E         	movff	?___xxtofl,___flge@ff1
   915  0022B4  C061  F06F         	movff	?___xxtofl+1,___flge@ff1+1
   916  0022B8  C062  F070         	movff	?___xxtofl+2,___flge@ff1+2
   917  0022BC  C063  F071         	movff	?___xxtofl+3,___flge@ff1+3
   918  0022C0  0E00               	movlw	0
   919  0022C2  0100               	movlb	0	; () banked
   920  0022C4  6F72               	movwf	___flge@ff2& (0+255),b
   921  0022C6  0E00               	movlw	0
   922  0022C8  6F73               	movwf	(___flge@ff2+1)& (0+255),b
   923  0022CA  0EB0               	movlw	176
   924  0022CC  6F74               	movwf	(___flge@ff2+2)& (0+255),b
   925  0022CE  0E42               	movlw	66
   926  0022D0  6F75               	movwf	(___flge@ff2+3)& (0+255),b
   927  0022D2  EC5F  F016         	call	___flge	;wreg free
   928  0022D6  0100               	movlb	0	; () banked
   929  0022D8  B0D8               	btfsc	status,0,c
   930  0022DA  EF71  F011         	goto	u3491
   931  0022DE  EF73  F011         	goto	u3490
   932  0022E2                     u3491:
   933  0022E2  EF77  F011         	goto	l3148
   934  0022E6                     u3490:
   935  0022E6                     
   936                           ; BSR set to: 0
   937                           ;main.c: 137:                         val = 3;
   938  0022E6  0E03               	movlw	3
   939  0022E8  6FBC               	movwf	main@val& (0+255),b
   940                           
   941                           ;main.c: 138:                     }
   942  0022EA  EFCB  F011         	goto	l3158
   943  0022EE                     l3148:
   944                           
   945                           ; BSR set to: 0
   946  0022EE  51BD               	movf	main@cnt& (0+255),w,b
   947  0022F0  6F60               	movwf	___xxtofl@val& (0+255),b
   948  0022F2  6B61               	clrf	(___xxtofl@val+1)& (0+255),b
   949  0022F4  6B62               	clrf	(___xxtofl@val+2)& (0+255),b
   950  0022F6  6B63               	clrf	(___xxtofl@val+3)& (0+255),b
   951  0022F8  0E01               	movlw	1
   952  0022FA  ECEA  F012         	call	___xxtofl
   953  0022FE  C060  F06E         	movff	?___xxtofl,___flge@ff1
   954  002302  C061  F06F         	movff	?___xxtofl+1,___flge@ff1+1
   955  002306  C062  F070         	movff	?___xxtofl+2,___flge@ff1+2
   956  00230A  C063  F071         	movff	?___xxtofl+3,___flge@ff1+3
   957  00230E  0E00               	movlw	0
   958  002310  0100               	movlb	0	; () banked
   959  002312  6F72               	movwf	___flge@ff2& (0+255),b
   960  002314  0E00               	movlw	0
   961  002316  6F73               	movwf	(___flge@ff2+1)& (0+255),b
   962  002318  0EBC               	movlw	188
   963  00231A  6F74               	movwf	(___flge@ff2+2)& (0+255),b
   964  00231C  0E42               	movlw	66
   965  00231E  6F75               	movwf	(___flge@ff2+3)& (0+255),b
   966  002320  EC5F  F016         	call	___flge	;wreg free
   967  002324  0100               	movlb	0	; () banked
   968  002326  B0D8               	btfsc	status,0,c
   969  002328  EF98  F011         	goto	u3501
   970  00232C  EF9A  F011         	goto	u3500
   971  002330                     u3501:
   972  002330  EF9E  F011         	goto	l3152
   973  002334                     u3500:
   974  002334                     
   975                           ; BSR set to: 0
   976                           ;main.c: 140:                         val = 2;
   977  002334  0E02               	movlw	2
   978  002336  6FBC               	movwf	main@val& (0+255),b
   979                           
   980                           ;main.c: 141:                     }
   981  002338  EFCB  F011         	goto	l3158
   982  00233C                     l3152:
   983                           
   984                           ; BSR set to: 0
   985  00233C  51BD               	movf	main@cnt& (0+255),w,b
   986  00233E  6F60               	movwf	___xxtofl@val& (0+255),b
   987  002340  6B61               	clrf	(___xxtofl@val+1)& (0+255),b
   988  002342  6B62               	clrf	(___xxtofl@val+2)& (0+255),b
   989  002344  6B63               	clrf	(___xxtofl@val+3)& (0+255),b
   990  002346  0E01               	movlw	1
   991  002348  ECEA  F012         	call	___xxtofl
   992  00234C  C060  F06E         	movff	?___xxtofl,___flge@ff1
   993  002350  C061  F06F         	movff	?___xxtofl+1,___flge@ff1+1
   994  002354  C062  F070         	movff	?___xxtofl+2,___flge@ff1+2
   995  002358  C063  F071         	movff	?___xxtofl+3,___flge@ff1+3
   996  00235C  0E00               	movlw	0
   997  00235E  0100               	movlb	0	; () banked
   998  002360  6F72               	movwf	___flge@ff2& (0+255),b
   999  002362  0E00               	movlw	0
  1000  002364  6F73               	movwf	(___flge@ff2+1)& (0+255),b
  1001  002366  0EC8               	movlw	200
  1002  002368  6F74               	movwf	(___flge@ff2+2)& (0+255),b
  1003  00236A  0E42               	movlw	66
  1004  00236C  6F75               	movwf	(___flge@ff2+3)& (0+255),b
  1005  00236E  EC5F  F016         	call	___flge	;wreg free
  1006  002372  0100               	movlb	0	; () banked
  1007  002374  B0D8               	btfsc	status,0,c
  1008  002376  EFBF  F011         	goto	u3511
  1009  00237A  EFC1  F011         	goto	u3510
  1010  00237E                     u3511:
  1011  00237E  EFC5  F011         	goto	l3156
  1012  002382                     u3510:
  1013  002382                     
  1014                           ; BSR set to: 0
  1015                           ;main.c: 143:                         val = 1;
  1016  002382  0E01               	movlw	1
  1017  002384  6FBC               	movwf	main@val& (0+255),b
  1018                           
  1019                           ;main.c: 144:                     }
  1020  002386  EFCB  F011         	goto	l3158
  1021  00238A                     l3156:
  1022                           
  1023                           ; BSR set to: 0
  1024                           ;main.c: 146:                         val = 0;
  1025  00238A  0E00               	movlw	0
  1026  00238C  6FBC               	movwf	main@val& (0+255),b
  1027                           
  1028                           ;main.c: 147:                         dgm_f = 0;
  1029  00238E  0E00               	movlw	0
  1030  002390  6FCC               	movwf	_dgm_f& (0+255),b
  1031                           
  1032                           ;main.c: 148:                         cnt = 0;
  1033  002392  0E00               	movlw	0
  1034  002394  6FBD               	movwf	main@cnt& (0+255),b
  1035  002396                     l3158:
  1036                           
  1037                           ; BSR set to: 0
  1038                           ;main.c: 151:                     NTC_Write(DGM_Effect(g_time, val));
  1039  002396  C0BE  F076         	movff	_g_time,DGM_Effect@time
  1040  00239A  C0BF  F077         	movff	_g_time+1,DGM_Effect@time+1
  1041  00239E  C0C0  F078         	movff	_g_time+2,DGM_Effect@time+2
  1042  0023A2  C0C1  F079         	movff	_g_time+3,DGM_Effect@time+3
  1043  0023A6  C0BC  F07A         	movff	main@val,DGM_Effect@val
  1044  0023AA  ECC6  F013         	call	_DGM_Effect	;wreg free
  1045  0023AE  C076  F087         	movff	?_DGM_Effect,NTC_Write@data
  1046  0023B2  C077  F088         	movff	?_DGM_Effect+1,NTC_Write@data+1
  1047  0023B6  C078  F089         	movff	?_DGM_Effect+2,NTC_Write@data+2
  1048  0023BA  C079  F08A         	movff	?_DGM_Effect+3,NTC_Write@data+3
  1049  0023BE  ECD4  F00D         	call	_NTC_Write	;wreg free
  1050                           
  1051                           ;main.c: 152:                 }
  1052  0023C2  EFAA  F010         	goto	l3120
  1053  0023C6                     l3160:
  1054                           
  1055                           ; BSR set to: 0
  1056                           ;main.c: 154:                     NTC_Write(g_time);
  1057  0023C6  C0BE  F087         	movff	_g_time,NTC_Write@data
  1058  0023CA  C0BF  F088         	movff	_g_time+1,NTC_Write@data+1
  1059  0023CE  C0C0  F089         	movff	_g_time+2,NTC_Write@data+2
  1060  0023D2  C0C1  F08A         	movff	_g_time+3,NTC_Write@data+3
  1061  0023D6  ECD4  F00D         	call	_NTC_Write	;wreg free
  1062  0023DA  EFAA  F010         	goto	l3120
  1063  0023DE                     l3162:
  1064                           
  1065                           ;main.c: 159:             if (dgm_f) {
  1066  0023DE  0100               	movlb	0	; () banked
  1067  0023E0  51CC               	movf	_dgm_f& (0+255),w,b
  1068  0023E2  B4D8               	btfsc	status,2,c
  1069  0023E4  EFF6  F011         	goto	u3521
  1070  0023E8  EFF8  F011         	goto	u3520
  1071  0023EC                     u3521:
  1072  0023EC  EFAA  F010         	goto	l3120
  1073  0023F0                     u3520:
  1074  0023F0                     
  1075                           ; BSR set to: 0
  1076                           ;main.c: 160:                 dgm_f = 0;
  1077  0023F0  0E00               	movlw	0
  1078  0023F2  6FCC               	movwf	_dgm_f& (0+255),b
  1079  0023F4  EFAA  F010         	goto	l3120
  1080  0023F8  EF32  F000         	goto	start
  1081  0023FC                     __end_of_main:
  1082                           	callstack 0
  1083                           
  1084 ;; *************** function _init *****************
  1085 ;; Defined at:
  1086 ;;		line 50 in file "main.c"
  1087 ;; Parameters:    Size  Location     Type
  1088 ;;		None
  1089 ;; Auto vars:     Size  Location     Type
  1090 ;;		None
  1091 ;; Return value:  Size  Location     Type
  1092 ;;                  1    wreg      void 
  1093 ;; Registers used:
  1094 ;;		wreg, status,2, status,0, prodl, prodh, cstack
  1095 ;; Tracked objects:
  1096 ;;		On entry : 0/0
  1097 ;;		On exit  : 0/0
  1098 ;;		Unchanged: 0/0
  1099 ;; Data sizes:     COMRAM   BANK0   BANK1   BANK2   BANK3   BANK4   BANK5   BANK6   BANK7   BANK8   BANK9  BANK10  BANK1
      +1  BANK12  BANK13  BANK14
  1100 ;;      Params:         0       0       0       0       0       0       0       0       0       0       0       0       
      +0       0       0       0
  1101 ;;      Locals:         0       0       0       0       0       0       0       0       0       0       0       0       
      +0       0       0       0
  1102 ;;      Temps:          0       0       0       0       0       0       0       0       0       0       0       0       
      +0       0       0       0
  1103 ;;      Totals:         0       0       0       0       0       0       0       0       0       0       0       0       
      +0       0       0       0
  1104 ;;Total ram usage:        0 bytes
  1105 ;; Hardware stack levels used: 1
  1106 ;; Hardware stack levels required when called: 6
  1107 ;; This function calls:
  1108 ;;		_Set_PWM_Duty
  1109 ;;		_UART_Init
  1110 ;; This function is called by:
  1111 ;;		_main
  1112 ;; This function uses a non-reentrant model
  1113 ;;
  1114                           
  1115                           	psect	text1
  1116  002DC4                     __ptext1:
  1117                           	callstack 0
  1118  002DC4                     _init:
  1119                           	callstack 24
  1120  002DC4                     
  1121                           ;main.c: 53:     OSCCON1 = 0x60;
  1122  002DC4  0E60               	movlw	96
  1123  002DC6  010E               	movlb	14	; () banked
  1124  002DC8  6FD3               	movwf	211,b	;volatile
  1125                           
  1126                           ;main.c: 54:     OSCFRQ = 0x08;
  1127  002DCA  0E08               	movlw	8
  1128  002DCC  6FD9               	movwf	217,b	;volatile
  1129                           
  1130                           ;main.c: 57:     TRISA = 0x00;
  1131  002DCE  0E00               	movlw	0
  1132  002DD0  6E87               	movwf	135,c	;volatile
  1133                           
  1134                           ;main.c: 58:     TRISB = 0x00;
  1135  002DD2  0E00               	movlw	0
  1136  002DD4  6E88               	movwf	136,c	;volatile
  1137                           
  1138                           ;main.c: 59:     TRISC = 0x41;
  1139  002DD6  0E41               	movlw	65
  1140  002DD8  6E89               	movwf	137,c	;volatile
  1141                           
  1142                           ;main.c: 62:     ANSELA = 0x00;
  1143  002DDA  0E00               	movlw	0
  1144  002DDC  010F               	movlb	15	; () banked
  1145  002DDE  6F0C               	movwf	12,b	;volatile
  1146                           
  1147                           ;main.c: 63:     ANSELB = 0x00;
  1148  002DE0  0E00               	movlw	0
  1149  002DE2  6F14               	movwf	20,b	;volatile
  1150                           
  1151                           ;main.c: 64:     ANSELC = 0x00;
  1152  002DE4  0E00               	movlw	0
  1153  002DE6  6F1C               	movwf	28,b	;volatile
  1154                           
  1155                           ;main.c: 67:     T0CON0 = 0x90;
  1156  002DE8  0E90               	movlw	144
  1157  002DEA  6ED4               	movwf	212,c	;volatile
  1158                           
  1159                           ;main.c: 68:     T0CON1 = 0xd0;
  1160  002DEC  0ED0               	movlw	208
  1161  002DEE  6ED5               	movwf	213,c	;volatile
  1162  002DF0                     
  1163                           ; BSR set to: 15
  1164                           ;main.c: 69:     TMR0IE = 1;
  1165  002DF0  010E               	movlb	14	; () banked
  1166  002DF2  8BBD               	bsf	189,5,b	;volatile
  1167                           
  1168                           ;main.c: 72:     T2CLKCON = 0x01;
  1169  002DF4  0E01               	movlw	1
  1170  002DF6  6EBE               	movwf	190,c	;volatile
  1171                           
  1172                           ;main.c: 73:     T2PR = 0xfe;
  1173  002DF8  0EFE               	movlw	254
  1174  002DFA  6EBB               	movwf	187,c	;volatile
  1175                           
  1176                           ;main.c: 74:     T2CON = 0xf0;
  1177  002DFC  0EF0               	movlw	240
  1178  002DFE  6EBC               	movwf	188,c	;volatile
  1179                           
  1180                           ;main.c: 77:     PWM3CON = 0x80;
  1181  002E00  0E80               	movlw	128
  1182  002E02  6EA4               	movwf	164,c	;volatile
  1183                           
  1184                           ;main.c: 78:     CCPTMRSbits.P3TSEL = 0x01;
  1185  002E04  50AD               	movf	173,w,c	;volatile
  1186  002E06  0BCF               	andlw	-49
  1187  002E08  0910               	iorlw	16
  1188  002E0A  6EAD               	movwf	173,c	;volatile
  1189  002E0C                     
  1190                           ; BSR set to: 14
  1191                           ;main.c: 79:     Set_PWM_Duty(3, 0);
  1192  002E0C  0E00               	movlw	0
  1193  002E0E  0100               	movlb	0	; () banked
  1194  002E10  6F61               	movwf	(Set_PWM_Duty@duty+1)& (0+255),b
  1195  002E12  0E00               	movlw	0
  1196  002E14  6F60               	movwf	Set_PWM_Duty@duty& (0+255),b
  1197  002E16  0E03               	movlw	3
  1198  002E18  EC11  F019         	call	_Set_PWM_Duty
  1199  002E1C                     
  1200                           ;main.c: 82:     PWM4CON = 0x80;
  1201  002E1C  0E80               	movlw	128
  1202  002E1E  6EA1               	movwf	161,c	;volatile
  1203  002E20                     
  1204                           ;main.c: 83:     CCPTMRSbits.P4TSEL = 0x01;
  1205  002E20  50AD               	movf	173,w,c	;volatile
  1206  002E22  0B3F               	andlw	-193
  1207  002E24  0940               	iorlw	64
  1208  002E26  6EAD               	movwf	173,c	;volatile
  1209  002E28                     
  1210                           ;main.c: 84:     Set_PWM_Duty(4, 0);
  1211  002E28  0E00               	movlw	0
  1212  002E2A  0100               	movlb	0	; () banked
  1213  002E2C  6F61               	movwf	(Set_PWM_Duty@duty+1)& (0+255),b
  1214  002E2E  0E00               	movlw	0
  1215  002E30  6F60               	movwf	Set_PWM_Duty@duty& (0+255),b
  1216  002E32  0E04               	movlw	4
  1217  002E34  EC11  F019         	call	_Set_PWM_Duty
  1218                           
  1219                           ;main.c: 87:     PPSLOCK = 0x55;
  1220  002E38  0E55               	movlw	85
  1221  002E3A  010E               	movlb	14	; () banked
  1222  002E3C  6F9B               	movwf	155,b	;volsfr
  1223                           
  1224                           ;main.c: 88:     PPSLOCK = 0xAA;
  1225  002E3E  0EAA               	movlw	170
  1226  002E40  6F9B               	movwf	155,b	;volsfr
  1227                           
  1228                           ;main.c: 89:     PPSLOCK = 0x00;
  1229  002E42  0E00               	movlw	0
  1230  002E44  6F9B               	movwf	155,b	;volsfr
  1231                           
  1232                           ;main.c: 92:     RX1PPS = 0x10;
  1233  002E46  0E10               	movlw	16
  1234  002E48  6FB0               	movwf	176,b	;volatile
  1235                           
  1236                           ;main.c: 93:     RC4PPS = 0x07;
  1237  002E4A  0E07               	movlw	7
  1238  002E4C  6FF6               	movwf	246,b	;volatile
  1239                           
  1240                           ;main.c: 94:     RC7PPS = 0x08;
  1241  002E4E  0E08               	movlw	8
  1242  002E50  6FF9               	movwf	249,b	;volatile
  1243                           
  1244                           ;main.c: 97:     PPSLOCK = 0x55;
  1245  002E52  0E55               	movlw	85
  1246  002E54  6F9B               	movwf	155,b	;volsfr
  1247                           
  1248                           ;main.c: 98:     PPSLOCK = 0xAA;
  1249  002E56  0EAA               	movlw	170
  1250  002E58  6F9B               	movwf	155,b	;volsfr
  1251                           
  1252                           ;main.c: 99:     PPSLOCK = 0x00;
  1253  002E5A  0E00               	movlw	0
  1254  002E5C  6F9B               	movwf	155,b	;volsfr
  1255  002E5E                     
  1256                           ; BSR set to: 14
  1257                           ;main.c: 102:     (INTCONbits.GIE = 1);
  1258  002E5E  8EF2               	bsf	242,7,c	;volatile
  1259  002E60                     
  1260                           ; BSR set to: 14
  1261                           ;main.c: 103:     PEIE = 1;
  1262  002E60  8CF2               	bsf	4082,6,c	;volatile
  1263  002E62                     
  1264                           ; BSR set to: 14
  1265                           ;main.c: 106:     UART_Init(9600);
  1266  002E62  0E25               	movlw	37
  1267  002E64  0100               	movlb	0	; () banked
  1268  002E66  6FBB               	movwf	(UART_Init@baud+1)& (0+255),b
  1269  002E68  0E80               	movlw	128
  1270  002E6A  6FBA               	movwf	UART_Init@baud& (0+255),b
  1271  002E6C  EC39  F017         	call	_UART_Init	;wreg free
  1272  002E70  0012               	return		;funcret
  1273  002E72                     __end_of_init:
  1274                           	callstack 0
  1275                           
  1276 ;; *************** function _UART_Init *****************
  1277 ;; Defined at:
  1278 ;;		line 4 in file "library/UART/UART.c"
  1279 ;; Parameters:    Size  Location     Type
  1280 ;;  baud            2   90[BANK0 ] unsigned short 
  1281 ;; Auto vars:     Size  Location     Type
  1282 ;;		None
  1283 ;; Return value:  Size  Location     Type
  1284 ;;                  1    wreg      void 
  1285 ;; Registers used:
  1286 ;;		wreg, status,2, status,0, prodl, prodh, cstack
  1287 ;; Tracked objects:
  1288 ;;		On entry : 0/0
  1289 ;;		On exit  : 0/0
  1290 ;;		Unchanged: 0/0
  1291 ;; Data sizes:     COMRAM   BANK0   BANK1   BANK2   BANK3   BANK4   BANK5   BANK6   BANK7   BANK8   BANK9  BANK10  BANK1
      +1  BANK12  BANK13  BANK14
  1292 ;;      Params:         0       2       0       0       0       0       0       0       0       0       0       0       
      +0       0       0       0
  1293 ;;      Locals:         0       0       0       0       0       0       0       0       0       0       0       0       
      +0       0       0       0
  1294 ;;      Temps:          0       0       0       0       0       0       0       0       0       0       0       0       
      +0       0       0       0
  1295 ;;      Totals:         0       2       0       0       0       0       0       0       0       0       0       0       
      +0       0       0       0
  1296 ;;Total ram usage:        2 bytes
  1297 ;; Hardware stack levels used: 1
  1298 ;; Hardware stack levels required when called: 5
  1299 ;; This function calls:
  1300 ;;		___fladd
  1301 ;;		___fldiv
  1302 ;;		___flmul
  1303 ;;		___fltol
  1304 ;;		___xxtofl
  1305 ;; This function is called by:
  1306 ;;		_init
  1307 ;; This function uses a non-reentrant model
  1308 ;;
  1309                           
  1310                           	psect	text2
  1311  002E72                     __ptext2:
  1312                           	callstack 0
  1313  002E72                     _UART_Init:
  1314                           	callstack 24
  1315  002E72                     
  1316                           ;library/UART/UART.c: 4: void UART_Init(uint16_t baud);library/UART/UART.c: 5: {;library
      +                          /UART/UART.c: 6:     TXSTA = 0x00;
  1317  002E72  0E00               	movlw	0
  1318  002E74  6E9D               	movwf	157,c	;volatile
  1319                           
  1320                           ;library/UART/UART.c: 7:     RCSTA = 0x90;
  1321  002E76  0E90               	movlw	144
  1322  002E78  6E9C               	movwf	156,c	;volatile
  1323  002E7A                     
  1324                           ;library/UART/UART.c: 8:     SPBRG = 64000000 / (64.0 * baud) - 1;
  1325  002E7A  0E00               	movlw	0
  1326  002E7C  0100               	movlb	0	; () banked
  1327  002E7E  6FA4               	movwf	___fladd@a& (0+255),b
  1328  002E80  0E00               	movlw	0
  1329  002E82  6FA5               	movwf	(___fladd@a+1)& (0+255),b
  1330  002E84  0E80               	movlw	128
  1331  002E86  6FA6               	movwf	(___fladd@a+2)& (0+255),b
  1332  002E88  0EBF               	movlw	191
  1333  002E8A  6FA7               	movwf	(___fladd@a+3)& (0+255),b
  1334  002E8C  0E00               	movlw	0
  1335  002E8E  6F72               	movwf	___flmul@a& (0+255),b
  1336  002E90  0E00               	movlw	0
  1337  002E92  6F73               	movwf	(___flmul@a+1)& (0+255),b
  1338  002E94  0E80               	movlw	128
  1339  002E96  6F74               	movwf	(___flmul@a+2)& (0+255),b
  1340  002E98  0E42               	movlw	66
  1341  002E9A  6F75               	movwf	(___flmul@a+3)& (0+255),b
  1342  002E9C  C0BA  F060         	movff	UART_Init@baud,___xxtofl@val
  1343  002EA0  C0BB  F061         	movff	UART_Init@baud+1,___xxtofl@val+1
  1344  002EA4  6B62               	clrf	(___xxtofl@val+2)& (0+255),b
  1345  002EA6  6B63               	clrf	(___xxtofl@val+3)& (0+255),b
  1346  002EA8  0E00               	movlw	0
  1347  002EAA  ECEA  F012         	call	___xxtofl
  1348  002EAE  C060  F06E         	movff	?___xxtofl,___flmul@b
  1349  002EB2  C061  F06F         	movff	?___xxtofl+1,___flmul@b+1
  1350  002EB6  C062  F070         	movff	?___xxtofl+2,___flmul@b+2
  1351  002EBA  C063  F071         	movff	?___xxtofl+3,___flmul@b+3
  1352  002EBE  ECF0  F009         	call	___flmul	;wreg free
  1353  002EC2  C06E  F08B         	movff	?___flmul,___fldiv@a
  1354  002EC6  C06F  F08C         	movff	?___flmul+1,___fldiv@a+1
  1355  002ECA  C070  F08D         	movff	?___flmul+2,___fldiv@a+2
  1356  002ECE  C071  F08E         	movff	?___flmul+3,___fldiv@a+3
  1357  002ED2  0E00               	movlw	0
  1358  002ED4  0100               	movlb	0	; () banked
  1359  002ED6  6F87               	movwf	___fldiv@b& (0+255),b
  1360  002ED8  0E24               	movlw	36
  1361  002EDA  6F88               	movwf	(___fldiv@b+1)& (0+255),b
  1362  002EDC  0E74               	movlw	116
  1363  002EDE  6F89               	movwf	(___fldiv@b+2)& (0+255),b
  1364  002EE0  0E4C               	movlw	76
  1365  002EE2  6F8A               	movwf	(___fldiv@b+3)& (0+255),b
  1366  002EE4  EC06  F00C         	call	___fldiv	;wreg free
  1367  002EE8  C087  F0A0         	movff	?___fldiv,___fladd@b
  1368  002EEC  C088  F0A1         	movff	?___fldiv+1,___fladd@b+1
  1369  002EF0  C089  F0A2         	movff	?___fldiv+2,___fladd@b+2
  1370  002EF4  C08A  F0A3         	movff	?___fldiv+3,___fladd@b+3
  1371  002EF8  EC8F  F007         	call	___fladd	;wreg free
  1372  002EFC  C0A0  F0B0         	movff	?___fladd,___fltol@f1
  1373  002F00  C0A1  F0B1         	movff	?___fladd+1,___fltol@f1+1
  1374  002F04  C0A2  F0B2         	movff	?___fladd+2,___fltol@f1+2
  1375  002F08  C0A3  F0B3         	movff	?___fladd+3,___fltol@f1+3
  1376  002F0C  ECDB  F015         	call	___fltol	;wreg free
  1377  002F10  0100               	movlb	0	; () banked
  1378  002F12  51B0               	movf	?___fltol& (0+255),w,b
  1379  002F14  6E9A               	movwf	154,c	;volatile
  1380  002F16                     
  1381                           ; BSR set to: 0
  1382                           ;library/UART/UART.c: 9:     RCIE = 1;
  1383  002F16  010E               	movlb	14	; () banked
  1384  002F18  8BC0               	bsf	192,5,b	;volatile
  1385  002F1A                     
  1386                           ; BSR set to: 14
  1387  002F1A  0012               	return		;funcret
  1388  002F1C                     __end_of_UART_Init:
  1389                           	callstack 0
  1390                           
  1391 ;; *************** function ___xxtofl *****************
  1392 ;; Defined at:
  1393 ;;		line 10 in file "C:\Program Files\Microchip\xc8\v2.32\pic\sources\c99\common\xxtofl.c"
  1394 ;; Parameters:    Size  Location     Type
  1395 ;;  sign            1    wreg     unsigned char 
  1396 ;;  val             4    0[BANK0 ] long 
  1397 ;; Auto vars:     Size  Location     Type
  1398 ;;  sign            1    8[BANK0 ] unsigned char 
  1399 ;;  arg             4   10[BANK0 ] unsigned long 
  1400 ;;  exp             1    9[BANK0 ] unsigned char 
  1401 ;; Return value:  Size  Location     Type
  1402 ;;                  4    0[BANK0 ] unsigned char 
  1403 ;; Registers used:
  1404 ;;		wreg, status,2, status,0
  1405 ;; Tracked objects:
  1406 ;;		On entry : 0/0
  1407 ;;		On exit  : 0/0
  1408 ;;		Unchanged: 0/0
  1409 ;; Data sizes:     COMRAM   BANK0   BANK1   BANK2   BANK3   BANK4   BANK5   BANK6   BANK7   BANK8   BANK9  BANK10  BANK1
      +1  BANK12  BANK13  BANK14
  1410 ;;      Params:         0       4       0       0       0       0       0       0       0       0       0       0       
      +0       0       0       0
  1411 ;;      Locals:         0       6       0       0       0       0       0       0       0       0       0       0       
      +0       0       0       0
  1412 ;;      Temps:          0       4       0       0       0       0       0       0       0       0       0       0       
      +0       0       0       0
  1413 ;;      Totals:         0      14       0       0       0       0       0       0       0       0       0       0       
      +0       0       0       0
  1414 ;;Total ram usage:       14 bytes
  1415 ;; Hardware stack levels used: 1
  1416 ;; Hardware stack levels required when called: 4
  1417 ;; This function calls:
  1418 ;;		Nothing
  1419 ;; This function is called by:
  1420 ;;		_main
  1421 ;;		_UART_Init
  1422 ;; This function uses a non-reentrant model
  1423 ;;
  1424                           
  1425                           	psect	text3
  1426  0025D4                     __ptext3:
  1427                           	callstack 0
  1428  0025D4                     ___xxtofl:
  1429                           	callstack 24
  1430                           
  1431                           ; BSR set to: 14
  1432                           ;incstack = 0
  1433                           ;___xxtofl@sign stored from wreg
  1434  0025D4  0100               	movlb	0	; () banked
  1435  0025D6  6F68               	movwf	___xxtofl@sign& (0+255),b
  1436  0025D8  0100               	movlb	0	; () banked
  1437  0025DA  5168               	movf	___xxtofl@sign& (0+255),w,b
  1438  0025DC  B4D8               	btfsc	status,2,c
  1439  0025DE  EFF3  F012         	goto	u2711
  1440  0025E2  EFF5  F012         	goto	u2710
  1441  0025E6                     u2711:
  1442  0025E6  EF17  F013         	goto	l919
  1443  0025EA                     u2710:
  1444  0025EA                     
  1445                           ; BSR set to: 0
  1446  0025EA  BF63               	btfsc	(___xxtofl@val+3)& (0+255),7,b
  1447  0025EC  EFFC  F012         	goto	u2720
  1448  0025F0  EFFA  F012         	goto	u2721
  1449  0025F4                     u2721:
  1450  0025F4  EF17  F013         	goto	l919
  1451  0025F8                     u2720:
  1452  0025F8                     
  1453                           ; BSR set to: 0
  1454  0025F8  C060  F064         	movff	___xxtofl@val,??___xxtofl
  1455  0025FC  C061  F065         	movff	___xxtofl@val+1,??___xxtofl+1
  1456  002600  C062  F066         	movff	___xxtofl@val+2,??___xxtofl+2
  1457  002604  C063  F067         	movff	___xxtofl@val+3,??___xxtofl+3
  1458  002608  1F64               	comf	??___xxtofl& (0+255),f,b
  1459  00260A  1F65               	comf	(??___xxtofl+1)& (0+255),f,b
  1460  00260C  1F66               	comf	(??___xxtofl+2)& (0+255),f,b
  1461  00260E  1F67               	comf	(??___xxtofl+3)& (0+255),f,b
  1462  002610  2B64               	incf	??___xxtofl& (0+255),f,b
  1463  002612  0E00               	movlw	0
  1464  002614  2365               	addwfc	(??___xxtofl+1)& (0+255),f,b
  1465  002616  2366               	addwfc	(??___xxtofl+2)& (0+255),f,b
  1466  002618  2367               	addwfc	(??___xxtofl+3)& (0+255),f,b
  1467  00261A  C064  F06A         	movff	??___xxtofl,___xxtofl@arg
  1468  00261E  C065  F06B         	movff	??___xxtofl+1,___xxtofl@arg+1
  1469  002622  C066  F06C         	movff	??___xxtofl+2,___xxtofl@arg+2
  1470  002626  C067  F06D         	movff	??___xxtofl+3,___xxtofl@arg+3
  1471  00262A  EF1F  F013         	goto	l2660
  1472  00262E                     l919:
  1473                           
  1474                           ; BSR set to: 0
  1475  00262E  C060  F06A         	movff	___xxtofl@val,___xxtofl@arg
  1476  002632  C061  F06B         	movff	___xxtofl@val+1,___xxtofl@arg+1
  1477  002636  C062  F06C         	movff	___xxtofl@val+2,___xxtofl@arg+2
  1478  00263A  C063  F06D         	movff	___xxtofl@val+3,___xxtofl@arg+3
  1479  00263E                     l2660:
  1480                           
  1481                           ; BSR set to: 0
  1482  00263E  5160               	movf	___xxtofl@val& (0+255),w,b
  1483  002640  1161               	iorwf	(___xxtofl@val+1)& (0+255),w,b
  1484  002642  1162               	iorwf	(___xxtofl@val+2)& (0+255),w,b
  1485  002644  1163               	iorwf	(___xxtofl@val+3)& (0+255),w,b
  1486  002646  A4D8               	btfss	status,2,c
  1487  002648  EF28  F013         	goto	u2731
  1488  00264C  EF2A  F013         	goto	u2730
  1489  002650                     u2731:
  1490  002650  EF34  F013         	goto	l2666
  1491  002654                     u2730:
  1492  002654                     
  1493                           ; BSR set to: 0
  1494  002654  0E00               	movlw	0
  1495  002656  6F60               	movwf	?___xxtofl& (0+255),b
  1496  002658  0E00               	movlw	0
  1497  00265A  6F61               	movwf	(?___xxtofl+1)& (0+255),b
  1498  00265C  0E00               	movlw	0
  1499  00265E  6F62               	movwf	(?___xxtofl+2)& (0+255),b
  1500  002660  0E00               	movlw	0
  1501  002662  6F63               	movwf	(?___xxtofl+3)& (0+255),b
  1502  002664  EFC5  F013         	goto	l922
  1503  002668                     l2666:
  1504                           
  1505                           ; BSR set to: 0
  1506  002668  0E96               	movlw	150
  1507  00266A  6F69               	movwf	___xxtofl@exp& (0+255),b
  1508  00266C  EF3E  F013         	goto	l2670
  1509  002670                     l2668:
  1510                           
  1511                           ; BSR set to: 0
  1512  002670  2B69               	incf	___xxtofl@exp& (0+255),f,b
  1513  002672  90D8               	bcf	status,0,c
  1514  002674  336D               	rrcf	(___xxtofl@arg+3)& (0+255),f,b
  1515  002676  336C               	rrcf	(___xxtofl@arg+2)& (0+255),f,b
  1516  002678  336B               	rrcf	(___xxtofl@arg+1)& (0+255),f,b
  1517  00267A  336A               	rrcf	___xxtofl@arg& (0+255),f,b
  1518  00267C                     l2670:
  1519                           
  1520                           ; BSR set to: 0
  1521  00267C  0E00               	movlw	0
  1522  00267E  156A               	andwf	___xxtofl@arg& (0+255),w,b
  1523  002680  6F64               	movwf	??___xxtofl& (0+255),b
  1524  002682  0E00               	movlw	0
  1525  002684  156B               	andwf	(___xxtofl@arg+1)& (0+255),w,b
  1526  002686  6F65               	movwf	(??___xxtofl+1)& (0+255),b
  1527  002688  0E00               	movlw	0
  1528  00268A  156C               	andwf	(___xxtofl@arg+2)& (0+255),w,b
  1529  00268C  6F66               	movwf	(??___xxtofl+2)& (0+255),b
  1530  00268E  0EFE               	movlw	254
  1531  002690  156D               	andwf	(___xxtofl@arg+3)& (0+255),w,b
  1532  002692  6F67               	movwf	(??___xxtofl+3)& (0+255),b
  1533  002694  5164               	movf	??___xxtofl& (0+255),w,b
  1534  002696  1165               	iorwf	(??___xxtofl+1)& (0+255),w,b
  1535  002698  1166               	iorwf	(??___xxtofl+2)& (0+255),w,b
  1536  00269A  1167               	iorwf	(??___xxtofl+3)& (0+255),w,b
  1537  00269C  A4D8               	btfss	status,2,c
  1538  00269E  EF53  F013         	goto	u2741
  1539  0026A2  EF55  F013         	goto	u2740
  1540  0026A6                     u2741:
  1541  0026A6  EF38  F013         	goto	l2668
  1542  0026AA                     u2740:
  1543  0026AA  EF63  F013         	goto	l926
  1544  0026AE                     l2672:
  1545                           
  1546                           ; BSR set to: 0
  1547  0026AE  2B69               	incf	___xxtofl@exp& (0+255),f,b
  1548  0026B0                     
  1549                           ; BSR set to: 0
  1550  0026B0  0E01               	movlw	1
  1551  0026B2  276A               	addwf	___xxtofl@arg& (0+255),f,b
  1552  0026B4  0E00               	movlw	0
  1553  0026B6  236B               	addwfc	(___xxtofl@arg+1)& (0+255),f,b
  1554  0026B8  236C               	addwfc	(___xxtofl@arg+2)& (0+255),f,b
  1555  0026BA  236D               	addwfc	(___xxtofl@arg+3)& (0+255),f,b
  1556  0026BC                     
  1557                           ; BSR set to: 0
  1558  0026BC  90D8               	bcf	status,0,c
  1559  0026BE  336D               	rrcf	(___xxtofl@arg+3)& (0+255),f,b
  1560  0026C0  336C               	rrcf	(___xxtofl@arg+2)& (0+255),f,b
  1561  0026C2  336B               	rrcf	(___xxtofl@arg+1)& (0+255),f,b
  1562  0026C4  336A               	rrcf	___xxtofl@arg& (0+255),f,b
  1563  0026C6                     l926:
  1564                           
  1565                           ; BSR set to: 0
  1566  0026C6  0E00               	movlw	0
  1567  0026C8  156A               	andwf	___xxtofl@arg& (0+255),w,b
  1568  0026CA  6F64               	movwf	??___xxtofl& (0+255),b
  1569  0026CC  0E00               	movlw	0
  1570  0026CE  156B               	andwf	(___xxtofl@arg+1)& (0+255),w,b
  1571  0026D0  6F65               	movwf	(??___xxtofl+1)& (0+255),b
  1572  0026D2  0E00               	movlw	0
  1573  0026D4  156C               	andwf	(___xxtofl@arg+2)& (0+255),w,b
  1574  0026D6  6F66               	movwf	(??___xxtofl+2)& (0+255),b
  1575  0026D8  0EFF               	movlw	255
  1576  0026DA  156D               	andwf	(___xxtofl@arg+3)& (0+255),w,b
  1577  0026DC  6F67               	movwf	(??___xxtofl+3)& (0+255),b
  1578  0026DE  5164               	movf	??___xxtofl& (0+255),w,b
  1579  0026E0  1165               	iorwf	(??___xxtofl+1)& (0+255),w,b
  1580  0026E2  1166               	iorwf	(??___xxtofl+2)& (0+255),w,b
  1581  0026E4  1167               	iorwf	(??___xxtofl+3)& (0+255),w,b
  1582  0026E6  A4D8               	btfss	status,2,c
  1583  0026E8  EF78  F013         	goto	u2751
  1584  0026EC  EF7A  F013         	goto	u2750
  1585  0026F0                     u2751:
  1586  0026F0  EF57  F013         	goto	l2672
  1587  0026F4                     u2750:
  1588  0026F4  EF82  F013         	goto	l2680
  1589  0026F8                     l2678:
  1590                           
  1591                           ; BSR set to: 0
  1592  0026F8  0769               	decf	___xxtofl@exp& (0+255),f,b
  1593  0026FA  90D8               	bcf	status,0,c
  1594  0026FC  376A               	rlcf	___xxtofl@arg& (0+255),f,b
  1595  0026FE  376B               	rlcf	(___xxtofl@arg+1)& (0+255),f,b
  1596  002700  376C               	rlcf	(___xxtofl@arg+2)& (0+255),f,b
  1597  002702  376D               	rlcf	(___xxtofl@arg+3)& (0+255),f,b
  1598  002704                     l2680:
  1599                           
  1600                           ; BSR set to: 0
  1601  002704  BF6C               	btfsc	(___xxtofl@arg+2)& (0+255),7,b
  1602  002706  EF87  F013         	goto	u2761
  1603  00270A  EF89  F013         	goto	u2760
  1604  00270E                     u2761:
  1605  00270E  EF91  F013         	goto	l933
  1606  002712                     u2760:
  1607  002712                     
  1608                           ; BSR set to: 0
  1609  002712  0E02               	movlw	2
  1610  002714  6169               	cpfslt	___xxtofl@exp& (0+255),b
  1611  002716  EF8F  F013         	goto	u2771
  1612  00271A  EF91  F013         	goto	u2770
  1613  00271E                     u2771:
  1614  00271E  EF7C  F013         	goto	l2678
  1615  002722                     u2770:
  1616  002722                     l933:
  1617                           
  1618                           ; BSR set to: 0
  1619  002722  B169               	btfsc	___xxtofl@exp& (0+255),0,b
  1620  002724  EF96  F013         	goto	u2781
  1621  002728  EF98  F013         	goto	u2780
  1622  00272C                     u2781:
  1623  00272C  EF99  F013         	goto	l2686
  1624  002730                     u2780:
  1625  002730                     
  1626                           ; BSR set to: 0
  1627  002730  9F6C               	bcf	(___xxtofl@arg+2)& (0+255),7,b
  1628  002732                     l2686:
  1629                           
  1630                           ; BSR set to: 0
  1631  002732  90D8               	bcf	status,0,c
  1632  002734  3369               	rrcf	___xxtofl@exp& (0+255),f,b
  1633  002736                     
  1634                           ; BSR set to: 0
  1635  002736  C069  F064         	movff	___xxtofl@exp,??___xxtofl
  1636  00273A  6B65               	clrf	(??___xxtofl+1)& (0+255),b
  1637  00273C  6B66               	clrf	(??___xxtofl+2)& (0+255),b
  1638  00273E  6B67               	clrf	(??___xxtofl+3)& (0+255),b
  1639  002740  C064  F067         	movff	??___xxtofl,??___xxtofl+3
  1640  002744  6B66               	clrf	(??___xxtofl+2)& (0+255),b
  1641  002746  6B65               	clrf	(??___xxtofl+1)& (0+255),b
  1642  002748  6B64               	clrf	??___xxtofl& (0+255),b
  1643  00274A  5164               	movf	??___xxtofl& (0+255),w,b
  1644  00274C  136A               	iorwf	___xxtofl@arg& (0+255),f,b
  1645  00274E  5165               	movf	(??___xxtofl+1)& (0+255),w,b
  1646  002750  136B               	iorwf	(___xxtofl@arg+1)& (0+255),f,b
  1647  002752  5166               	movf	(??___xxtofl+2)& (0+255),w,b
  1648  002754  136C               	iorwf	(___xxtofl@arg+2)& (0+255),f,b
  1649  002756  5167               	movf	(??___xxtofl+3)& (0+255),w,b
  1650  002758  136D               	iorwf	(___xxtofl@arg+3)& (0+255),f,b
  1651  00275A                     
  1652                           ; BSR set to: 0
  1653  00275A  5168               	movf	___xxtofl@sign& (0+255),w,b
  1654  00275C  B4D8               	btfsc	status,2,c
  1655  00275E  EFB3  F013         	goto	u2791
  1656  002762  EFB5  F013         	goto	u2790
  1657  002766                     u2791:
  1658  002766  EFBD  F013         	goto	l2696
  1659  00276A                     u2790:
  1660  00276A                     
  1661                           ; BSR set to: 0
  1662  00276A  BF63               	btfsc	(___xxtofl@val+3)& (0+255),7,b
  1663  00276C  EFBC  F013         	goto	u2800
  1664  002770  EFBA  F013         	goto	u2801
  1665  002774                     u2801:
  1666  002774  EFBD  F013         	goto	l2696
  1667  002778                     u2800:
  1668  002778                     
  1669                           ; BSR set to: 0
  1670  002778  8F6D               	bsf	(___xxtofl@arg+3)& (0+255),7,b
  1671  00277A                     l2696:
  1672                           
  1673                           ; BSR set to: 0
  1674  00277A  C06A  F060         	movff	___xxtofl@arg,?___xxtofl
  1675  00277E  C06B  F061         	movff	___xxtofl@arg+1,?___xxtofl+1
  1676  002782  C06C  F062         	movff	___xxtofl@arg+2,?___xxtofl+2
  1677  002786  C06D  F063         	movff	___xxtofl@arg+3,?___xxtofl+3
  1678  00278A                     l922:
  1679                           
  1680                           ; BSR set to: 0
  1681  00278A  0012               	return		;funcret
  1682  00278C                     __end_of___xxtofl:
  1683                           	callstack 0
  1684                           
  1685 ;; *************** function ___fltol *****************
  1686 ;; Defined at:
  1687 ;;		line 43 in file "C:\Program Files\Microchip\xc8\v2.32\pic\sources\c99\common\fltol.c"
  1688 ;; Parameters:    Size  Location     Type
  1689 ;;  f1              4   80[BANK0 ] unsigned char 
  1690 ;; Auto vars:     Size  Location     Type
  1691 ;;  exp1            1   89[BANK0 ] unsigned char 
  1692 ;;  sign1           1   88[BANK0 ] unsigned char 
  1693 ;; Return value:  Size  Location     Type
  1694 ;;                  4   80[BANK0 ] long 
  1695 ;; Registers used:
  1696 ;;		wreg, status,2, status,0
  1697 ;; Tracked objects:
  1698 ;;		On entry : 0/0
  1699 ;;		On exit  : 0/0
  1700 ;;		Unchanged: 0/0
  1701 ;; Data sizes:     COMRAM   BANK0   BANK1   BANK2   BANK3   BANK4   BANK5   BANK6   BANK7   BANK8   BANK9  BANK10  BANK1
      +1  BANK12  BANK13  BANK14
  1702 ;;      Params:         0       4       0       0       0       0       0       0       0       0       0       0       
      +0       0       0       0
  1703 ;;      Locals:         0       2       0       0       0       0       0       0       0       0       0       0       
      +0       0       0       0
  1704 ;;      Temps:          0       4       0       0       0       0       0       0       0       0       0       0       
      +0       0       0       0
  1705 ;;      Totals:         0      10       0       0       0       0       0       0       0       0       0       0       
      +0       0       0       0
  1706 ;;Total ram usage:       10 bytes
  1707 ;; Hardware stack levels used: 1
  1708 ;; Hardware stack levels required when called: 4
  1709 ;; This function calls:
  1710 ;;		Nothing
  1711 ;; This function is called by:
  1712 ;;		_UART_Init
  1713 ;; This function uses a non-reentrant model
  1714 ;;
  1715                           
  1716                           	psect	text4
  1717  002BB6                     __ptext4:
  1718                           	callstack 0
  1719  002BB6                     ___fltol:
  1720                           	callstack 24
  1721  002BB6  0100               	movlb	0	; () banked
  1722  002BB8  35B2               	rlcf	(___fltol@f1+2)& (0+255),w,b
  1723  002BBA  35B3               	rlcf	(___fltol@f1+3)& (0+255),w,b
  1724  002BBC  6FB9               	movwf	___fltol@exp1& (0+255),b
  1725  002BBE  51B9               	movf	___fltol@exp1& (0+255),w,b
  1726  002BC0  A4D8               	btfss	status,2,c
  1727  002BC2  EFE5  F015         	goto	u2641
  1728  002BC6  EFE7  F015         	goto	u2640
  1729  002BCA                     u2641:
  1730  002BCA  EFF1  F015         	goto	l2616
  1731  002BCE                     u2640:
  1732  002BCE                     l2612:
  1733                           
  1734                           ; BSR set to: 0
  1735  002BCE  0E00               	movlw	0
  1736  002BD0  6FB0               	movwf	?___fltol& (0+255),b
  1737  002BD2  0E00               	movlw	0
  1738  002BD4  6FB1               	movwf	(?___fltol+1)& (0+255),b
  1739  002BD6  0E00               	movlw	0
  1740  002BD8  6FB2               	movwf	(?___fltol+2)& (0+255),b
  1741  002BDA  0E00               	movlw	0
  1742  002BDC  6FB3               	movwf	(?___fltol+3)& (0+255),b
  1743  002BDE  EF5E  F016         	goto	l561
  1744  002BE2                     l2616:
  1745                           
  1746                           ; BSR set to: 0
  1747  002BE2  C0B0  F0B4         	movff	___fltol@f1,??___fltol
  1748  002BE6  C0B1  F0B5         	movff	___fltol@f1+1,??___fltol+1
  1749  002BEA  C0B2  F0B6         	movff	___fltol@f1+2,??___fltol+2
  1750  002BEE  C0B3  F0B7         	movff	___fltol@f1+3,??___fltol+3
  1751  002BF2  0E20               	movlw	32
  1752  002BF4  EF01  F016         	goto	u2650
  1753  002BF8                     u2655:
  1754  002BF8  90D8               	bcf	status,0,c
  1755  002BFA  33B7               	rrcf	(??___fltol+3)& (0+255),f,b
  1756  002BFC  33B6               	rrcf	(??___fltol+2)& (0+255),f,b
  1757  002BFE  33B5               	rrcf	(??___fltol+1)& (0+255),f,b
  1758  002C00  33B4               	rrcf	??___fltol& (0+255),f,b
  1759  002C02                     u2650:
  1760  002C02  2EE8               	decfsz	wreg,f,c
  1761  002C04  EFFC  F015         	goto	u2655
  1762  002C08  51B4               	movf	??___fltol& (0+255),w,b
  1763  002C0A  6FB8               	movwf	___fltol@sign1& (0+255),b
  1764  002C0C                     
  1765                           ; BSR set to: 0
  1766  002C0C  8FB2               	bsf	(___fltol@f1+2)& (0+255),7,b
  1767  002C0E                     
  1768                           ; BSR set to: 0
  1769  002C0E  0EFF               	movlw	255
  1770  002C10  17B0               	andwf	___fltol@f1& (0+255),f,b
  1771  002C12  0EFF               	movlw	255
  1772  002C14  17B1               	andwf	(___fltol@f1+1)& (0+255),f,b
  1773  002C16  0EFF               	movlw	255
  1774  002C18  17B2               	andwf	(___fltol@f1+2)& (0+255),f,b
  1775  002C1A  0E00               	movlw	0
  1776  002C1C  17B3               	andwf	(___fltol@f1+3)& (0+255),f,b
  1777  002C1E                     
  1778                           ; BSR set to: 0
  1779  002C1E  0E96               	movlw	150
  1780  002C20  5FB9               	subwf	___fltol@exp1& (0+255),f,b
  1781  002C22                     
  1782                           ; BSR set to: 0
  1783  002C22  BFB9               	btfsc	___fltol@exp1& (0+255),7,b
  1784  002C24  EF18  F016         	goto	u2660
  1785  002C28  EF16  F016         	goto	u2661
  1786  002C2C                     u2661:
  1787  002C2C  EF2E  F016         	goto	l2636
  1788  002C30                     u2660:
  1789  002C30                     
  1790                           ; BSR set to: 0
  1791  002C30  51B9               	movf	___fltol@exp1& (0+255),w,b
  1792  002C32  0A80               	xorlw	128
  1793  002C34  0F97               	addlw	151
  1794  002C36  B0D8               	btfsc	status,0,c
  1795  002C38  EF20  F016         	goto	u2671
  1796  002C3C  EF22  F016         	goto	u2670
  1797  002C40                     u2671:
  1798  002C40  EF24  F016         	goto	l2632
  1799  002C44                     u2670:
  1800  002C44  EFE7  F015         	goto	l2612
  1801  002C48                     l2632:
  1802                           
  1803                           ; BSR set to: 0
  1804  002C48  90D8               	bcf	status,0,c
  1805  002C4A  33B3               	rrcf	(___fltol@f1+3)& (0+255),f,b
  1806  002C4C  33B2               	rrcf	(___fltol@f1+2)& (0+255),f,b
  1807  002C4E  33B1               	rrcf	(___fltol@f1+1)& (0+255),f,b
  1808  002C50  33B0               	rrcf	___fltol@f1& (0+255),f,b
  1809  002C52                     
  1810                           ; BSR set to: 0
  1811  002C52  3FB9               	incfsz	___fltol@exp1& (0+255),f,b
  1812  002C54  EF24  F016         	goto	l2632
  1813  002C58  EF46  F016         	goto	l2646
  1814  002C5C                     l2636:
  1815                           
  1816                           ; BSR set to: 0
  1817  002C5C  0E1F               	movlw	31
  1818  002C5E  65B9               	cpfsgt	___fltol@exp1& (0+255),b
  1819  002C60  EF34  F016         	goto	u2681
  1820  002C64  EF36  F016         	goto	u2680
  1821  002C68                     u2681:
  1822  002C68  EF3E  F016         	goto	l2644
  1823  002C6C                     u2680:
  1824  002C6C  EFE7  F015         	goto	l2612
  1825  002C70                     l2642:
  1826                           
  1827                           ; BSR set to: 0
  1828  002C70  90D8               	bcf	status,0,c
  1829  002C72  37B0               	rlcf	___fltol@f1& (0+255),f,b
  1830  002C74  37B1               	rlcf	(___fltol@f1+1)& (0+255),f,b
  1831  002C76  37B2               	rlcf	(___fltol@f1+2)& (0+255),f,b
  1832  002C78  37B3               	rlcf	(___fltol@f1+3)& (0+255),f,b
  1833  002C7A  07B9               	decf	___fltol@exp1& (0+255),f,b
  1834  002C7C                     l2644:
  1835                           
  1836                           ; BSR set to: 0
  1837  002C7C  51B9               	movf	___fltol@exp1& (0+255),w,b
  1838  002C7E  A4D8               	btfss	status,2,c
  1839  002C80  EF44  F016         	goto	u2691
  1840  002C84  EF46  F016         	goto	u2690
  1841  002C88                     u2691:
  1842  002C88  EF38  F016         	goto	l2642
  1843  002C8C                     u2690:
  1844  002C8C                     l2646:
  1845                           
  1846                           ; BSR set to: 0
  1847  002C8C  51B8               	movf	___fltol@sign1& (0+255),w,b
  1848  002C8E  B4D8               	btfsc	status,2,c
  1849  002C90  EF4C  F016         	goto	u2701
  1850  002C94  EF4E  F016         	goto	u2700
  1851  002C98                     u2701:
  1852  002C98  EF56  F016         	goto	l2650
  1853  002C9C                     u2700:
  1854  002C9C                     
  1855                           ; BSR set to: 0
  1856  002C9C  1FB3               	comf	(___fltol@f1+3)& (0+255),f,b
  1857  002C9E  1FB2               	comf	(___fltol@f1+2)& (0+255),f,b
  1858  002CA0  1FB1               	comf	(___fltol@f1+1)& (0+255),f,b
  1859  002CA2  6DB0               	negf	___fltol@f1& (0+255),b
  1860  002CA4  0E00               	movlw	0
  1861  002CA6  23B1               	addwfc	(___fltol@f1+1)& (0+255),f,b
  1862  002CA8  23B2               	addwfc	(___fltol@f1+2)& (0+255),f,b
  1863  002CAA  23B3               	addwfc	(___fltol@f1+3)& (0+255),f,b
  1864  002CAC                     l2650:
  1865                           
  1866                           ; BSR set to: 0
  1867  002CAC  C0B0  F0B0         	movff	___fltol@f1,?___fltol
  1868  002CB0  C0B1  F0B1         	movff	___fltol@f1+1,?___fltol+1
  1869  002CB4  C0B2  F0B2         	movff	___fltol@f1+2,?___fltol+2
  1870  002CB8  C0B3  F0B3         	movff	___fltol@f1+3,?___fltol+3
  1871  002CBC                     l561:
  1872                           
  1873                           ; BSR set to: 0
  1874  002CBC  0012               	return		;funcret
  1875  002CBE                     __end_of___fltol:
  1876                           	callstack 0
  1877                           
  1878 ;; *************** function ___flmul *****************
  1879 ;; Defined at:
  1880 ;;		line 8 in file "C:\Program Files\Microchip\xc8\v2.32\pic\sources\c99\common\sprcmul.c"
  1881 ;; Parameters:    Size  Location     Type
  1882 ;;  b               4   14[BANK0 ] long 
  1883 ;;  a               4   18[BANK0 ] long 
  1884 ;; Auto vars:     Size  Location     Type
  1885 ;;  prod            4   33[BANK0 ] struct .
  1886 ;;  grs             4   27[BANK0 ] unsigned long 
  1887 ;;  temp            2   37[BANK0 ] struct .
  1888 ;;  bexp            1   32[BANK0 ] unsigned char 
  1889 ;;  aexp            1   31[BANK0 ] unsigned char 
  1890 ;;  sign            1   26[BANK0 ] unsigned char 
  1891 ;; Return value:  Size  Location     Type
  1892 ;;                  4   14[BANK0 ] unsigned char 
  1893 ;; Registers used:
  1894 ;;		wreg, status,2, status,0, prodl, prodh
  1895 ;; Tracked objects:
  1896 ;;		On entry : 0/0
  1897 ;;		On exit  : 0/0
  1898 ;;		Unchanged: 0/0
  1899 ;; Data sizes:     COMRAM   BANK0   BANK1   BANK2   BANK3   BANK4   BANK5   BANK6   BANK7   BANK8   BANK9  BANK10  BANK1
      +1  BANK12  BANK13  BANK14
  1900 ;;      Params:         0       8       0       0       0       0       0       0       0       0       0       0       
      +0       0       0       0
  1901 ;;      Locals:         0      13       0       0       0       0       0       0       0       0       0       0       
      +0       0       0       0
  1902 ;;      Temps:          0       4       0       0       0       0       0       0       0       0       0       0       
      +0       0       0       0
  1903 ;;      Totals:         0      25       0       0       0       0       0       0       0       0       0       0       
      +0       0       0       0
  1904 ;;Total ram usage:       25 bytes
  1905 ;; Hardware stack levels used: 1
  1906 ;; Hardware stack levels required when called: 4
  1907 ;; This function calls:
  1908 ;;		Nothing
  1909 ;; This function is called by:
  1910 ;;		_UART_Init
  1911 ;; This function uses a non-reentrant model
  1912 ;;
  1913                           
  1914                           	psect	text5
  1915  0013E0                     __ptext5:
  1916                           	callstack 0
  1917  0013E0                     ___flmul:
  1918                           	callstack 24
  1919  0013E0  0100               	movlb	0	; () banked
  1920  0013E2  5171               	movf	(___flmul@b+3)& (0+255),w,b
  1921  0013E4  0B80               	andlw	128
  1922  0013E6  6F7A               	movwf	___flmul@sign& (0+255),b
  1923  0013E8  5171               	movf	(___flmul@b+3)& (0+255),w,b
  1924  0013EA  2571               	addwf	(___flmul@b+3)& (0+255),w,b
  1925  0013EC  6F80               	movwf	___flmul@bexp& (0+255),b
  1926  0013EE                     
  1927                           ; BSR set to: 0
  1928  0013EE  AF70               	btfss	(___flmul@b+2)& (0+255),7,b
  1929  0013F0  EFFC  F009         	goto	u2451
  1930  0013F4  EFFE  F009         	goto	u2450
  1931  0013F8                     u2451:
  1932  0013F8  EFFF  F009         	goto	l2486
  1933  0013FC                     u2450:
  1934  0013FC                     
  1935                           ; BSR set to: 0
  1936  0013FC  8180               	bsf	___flmul@bexp& (0+255),0,b
  1937  0013FE                     l2486:
  1938                           
  1939                           ; BSR set to: 0
  1940  0013FE  5180               	movf	___flmul@bexp& (0+255),w,b
  1941  001400  B4D8               	btfsc	status,2,c
  1942  001402  EF05  F00A         	goto	u2461
  1943  001406  EF07  F00A         	goto	u2460
  1944  00140A                     u2461:
  1945  00140A  EF1A  F00A         	goto	l2494
  1946  00140E                     u2460:
  1947  00140E                     
  1948                           ; BSR set to: 0
  1949  00140E  2980               	incf	___flmul@bexp& (0+255),w,b
  1950  001410  A4D8               	btfss	status,2,c
  1951  001412  EF0D  F00A         	goto	u2471
  1952  001416  EF0F  F00A         	goto	u2470
  1953  00141A                     u2471:
  1954  00141A  EF17  F00A         	goto	l2492
  1955  00141E                     u2470:
  1956  00141E                     
  1957                           ; BSR set to: 0
  1958  00141E  0E00               	movlw	0
  1959  001420  6F6E               	movwf	___flmul@b& (0+255),b
  1960  001422  0E00               	movlw	0
  1961  001424  6F6F               	movwf	(___flmul@b+1)& (0+255),b
  1962  001426  0E00               	movlw	0
  1963  001428  6F70               	movwf	(___flmul@b+2)& (0+255),b
  1964  00142A  0E00               	movlw	0
  1965  00142C  6F71               	movwf	(___flmul@b+3)& (0+255),b
  1966  00142E                     l2492:
  1967                           
  1968                           ; BSR set to: 0
  1969  00142E  8F70               	bsf	(___flmul@b+2)& (0+255),7,b
  1970  001430  EF22  F00A         	goto	l2496
  1971  001434                     l2494:
  1972                           
  1973                           ; BSR set to: 0
  1974  001434  0E00               	movlw	0
  1975  001436  6F6E               	movwf	___flmul@b& (0+255),b
  1976  001438  0E00               	movlw	0
  1977  00143A  6F6F               	movwf	(___flmul@b+1)& (0+255),b
  1978  00143C  0E00               	movlw	0
  1979  00143E  6F70               	movwf	(___flmul@b+2)& (0+255),b
  1980  001440  0E00               	movlw	0
  1981  001442  6F71               	movwf	(___flmul@b+3)& (0+255),b
  1982  001444                     l2496:
  1983                           
  1984                           ; BSR set to: 0
  1985  001444  5175               	movf	(___flmul@a+3)& (0+255),w,b
  1986  001446  0B80               	andlw	128
  1987  001448  1B7A               	xorwf	___flmul@sign& (0+255),f,b
  1988  00144A                     
  1989                           ; BSR set to: 0
  1990  00144A  5175               	movf	(___flmul@a+3)& (0+255),w,b
  1991  00144C  2575               	addwf	(___flmul@a+3)& (0+255),w,b
  1992  00144E  6F7F               	movwf	___flmul@aexp& (0+255),b
  1993  001450                     
  1994                           ; BSR set to: 0
  1995  001450  AF74               	btfss	(___flmul@a+2)& (0+255),7,b
  1996  001452  EF2D  F00A         	goto	u2481
  1997  001456  EF2F  F00A         	goto	u2480
  1998  00145A                     u2481:
  1999  00145A  EF30  F00A         	goto	l2504
  2000  00145E                     u2480:
  2001  00145E                     
  2002                           ; BSR set to: 0
  2003  00145E  817F               	bsf	___flmul@aexp& (0+255),0,b
  2004  001460                     l2504:
  2005                           
  2006                           ; BSR set to: 0
  2007  001460  517F               	movf	___flmul@aexp& (0+255),w,b
  2008  001462  B4D8               	btfsc	status,2,c
  2009  001464  EF36  F00A         	goto	u2491
  2010  001468  EF38  F00A         	goto	u2490
  2011  00146C                     u2491:
  2012  00146C  EF4B  F00A         	goto	l2512
  2013  001470                     u2490:
  2014  001470                     
  2015                           ; BSR set to: 0
  2016  001470  297F               	incf	___flmul@aexp& (0+255),w,b
  2017  001472  A4D8               	btfss	status,2,c
  2018  001474  EF3E  F00A         	goto	u2501
  2019  001478  EF40  F00A         	goto	u2500
  2020  00147C                     u2501:
  2021  00147C  EF48  F00A         	goto	l2510
  2022  001480                     u2500:
  2023  001480                     
  2024                           ; BSR set to: 0
  2025  001480  0E00               	movlw	0
  2026  001482  6F72               	movwf	___flmul@a& (0+255),b
  2027  001484  0E00               	movlw	0
  2028  001486  6F73               	movwf	(___flmul@a+1)& (0+255),b
  2029  001488  0E00               	movlw	0
  2030  00148A  6F74               	movwf	(___flmul@a+2)& (0+255),b
  2031  00148C  0E00               	movlw	0
  2032  00148E  6F75               	movwf	(___flmul@a+3)& (0+255),b
  2033  001490                     l2510:
  2034                           
  2035                           ; BSR set to: 0
  2036  001490  8F74               	bsf	(___flmul@a+2)& (0+255),7,b
  2037  001492  EF53  F00A         	goto	l878
  2038  001496                     l2512:
  2039                           
  2040                           ; BSR set to: 0
  2041  001496  0E00               	movlw	0
  2042  001498  6F72               	movwf	___flmul@a& (0+255),b
  2043  00149A  0E00               	movlw	0
  2044  00149C  6F73               	movwf	(___flmul@a+1)& (0+255),b
  2045  00149E  0E00               	movlw	0
  2046  0014A0  6F74               	movwf	(___flmul@a+2)& (0+255),b
  2047  0014A2  0E00               	movlw	0
  2048  0014A4  6F75               	movwf	(___flmul@a+3)& (0+255),b
  2049  0014A6                     l878:
  2050                           
  2051                           ; BSR set to: 0
  2052  0014A6  517F               	movf	___flmul@aexp& (0+255),w,b
  2053  0014A8  B4D8               	btfsc	status,2,c
  2054  0014AA  EF59  F00A         	goto	u2511
  2055  0014AE  EF5B  F00A         	goto	u2510
  2056  0014B2                     u2511:
  2057  0014B2  EF63  F00A         	goto	l2516
  2058  0014B6                     u2510:
  2059  0014B6                     
  2060                           ; BSR set to: 0
  2061  0014B6  5180               	movf	___flmul@bexp& (0+255),w,b
  2062  0014B8  A4D8               	btfss	status,2,c
  2063  0014BA  EF61  F00A         	goto	u2521
  2064  0014BE  EF63  F00A         	goto	u2520
  2065  0014C2                     u2521:
  2066  0014C2  EF6D  F00A         	goto	l2520
  2067  0014C6                     u2520:
  2068  0014C6                     l2516:
  2069                           
  2070                           ; BSR set to: 0
  2071  0014C6  0E00               	movlw	0
  2072  0014C8  6F6E               	movwf	?___flmul& (0+255),b
  2073  0014CA  0E00               	movlw	0
  2074  0014CC  6F6F               	movwf	(?___flmul+1)& (0+255),b
  2075  0014CE  0E00               	movlw	0
  2076  0014D0  6F70               	movwf	(?___flmul+2)& (0+255),b
  2077  0014D2  0E00               	movlw	0
  2078  0014D4  6F71               	movwf	(?___flmul+3)& (0+255),b
  2079  0014D6  EF05  F00C         	goto	l882
  2080  0014DA                     l2520:
  2081                           
  2082                           ; BSR set to: 0
  2083  0014DA  5174               	movf	(___flmul@a+2)& (0+255),w,b
  2084  0014DC  036E               	mulwf	___flmul@b& (0+255),b
  2085  0014DE  CFF3 F085          	movff	prodl,___flmul@temp
  2086  0014E2  CFF4 F086          	movff	prodh,___flmul@temp+1
  2087  0014E6                     
  2088                           ; BSR set to: 0
  2089  0014E6  5185               	movf	___flmul@temp& (0+255),w,b
  2090  0014E8  6F7B               	movwf	___flmul@grs& (0+255),b
  2091  0014EA  6B7C               	clrf	(___flmul@grs+1)& (0+255),b
  2092  0014EC  6B7D               	clrf	(___flmul@grs+2)& (0+255),b
  2093  0014EE  6B7E               	clrf	(___flmul@grs+3)& (0+255),b
  2094  0014F0                     
  2095                           ; BSR set to: 0
  2096  0014F0  5186               	movf	(___flmul@temp+1)& (0+255),w,b
  2097  0014F2  6F81               	movwf	___flmul@prod& (0+255),b
  2098  0014F4  6B82               	clrf	(___flmul@prod+1)& (0+255),b
  2099  0014F6  6B83               	clrf	(___flmul@prod+2)& (0+255),b
  2100  0014F8  6B84               	clrf	(___flmul@prod+3)& (0+255),b
  2101  0014FA  5173               	movf	(___flmul@a+1)& (0+255),w,b
  2102  0014FC  036F               	mulwf	(___flmul@b+1)& (0+255),b
  2103  0014FE  CFF3 F085          	movff	prodl,___flmul@temp
  2104  001502  CFF4 F086          	movff	prodh,___flmul@temp+1
  2105  001506                     
  2106                           ; BSR set to: 0
  2107  001506  5185               	movf	___flmul@temp& (0+255),w,b
  2108  001508  277B               	addwf	___flmul@grs& (0+255),f,b
  2109  00150A  0E00               	movlw	0
  2110  00150C  237C               	addwfc	(___flmul@grs+1)& (0+255),f,b
  2111  00150E  237D               	addwfc	(___flmul@grs+2)& (0+255),f,b
  2112  001510  237E               	addwfc	(___flmul@grs+3)& (0+255),f,b
  2113  001512                     
  2114                           ; BSR set to: 0
  2115  001512  5186               	movf	(___flmul@temp+1)& (0+255),w,b
  2116  001514  2781               	addwf	___flmul@prod& (0+255),f,b
  2117  001516  0E00               	movlw	0
  2118  001518  2382               	addwfc	(___flmul@prod+1)& (0+255),f,b
  2119  00151A  2383               	addwfc	(___flmul@prod+2)& (0+255),f,b
  2120  00151C  2384               	addwfc	(___flmul@prod+3)& (0+255),f,b
  2121  00151E  5172               	movf	___flmul@a& (0+255),w,b
  2122  001520  0370               	mulwf	(___flmul@b+2)& (0+255),b
  2123  001522  CFF3 F085          	movff	prodl,___flmul@temp
  2124  001526  CFF4 F086          	movff	prodh,___flmul@temp+1
  2125  00152A                     
  2126                           ; BSR set to: 0
  2127  00152A  5185               	movf	___flmul@temp& (0+255),w,b
  2128  00152C  277B               	addwf	___flmul@grs& (0+255),f,b
  2129  00152E  0E00               	movlw	0
  2130  001530  237C               	addwfc	(___flmul@grs+1)& (0+255),f,b
  2131  001532  237D               	addwfc	(___flmul@grs+2)& (0+255),f,b
  2132  001534  237E               	addwfc	(___flmul@grs+3)& (0+255),f,b
  2133  001536                     
  2134                           ; BSR set to: 0
  2135  001536  5186               	movf	(___flmul@temp+1)& (0+255),w,b
  2136  001538  2781               	addwf	___flmul@prod& (0+255),f,b
  2137  00153A  0E00               	movlw	0
  2138  00153C  2382               	addwfc	(___flmul@prod+1)& (0+255),f,b
  2139  00153E  2383               	addwfc	(___flmul@prod+2)& (0+255),f,b
  2140  001540  2384               	addwfc	(___flmul@prod+3)& (0+255),f,b
  2141  001542                     
  2142                           ; BSR set to: 0
  2143  001542  C07D  F07E         	movff	___flmul@grs+2,___flmul@grs+3
  2144  001546  C07C  F07D         	movff	___flmul@grs+1,___flmul@grs+2
  2145  00154A  C07B  F07C         	movff	___flmul@grs,___flmul@grs+1
  2146  00154E  6B7B               	clrf	___flmul@grs& (0+255),b
  2147  001550                     
  2148                           ; BSR set to: 0
  2149  001550  5172               	movf	___flmul@a& (0+255),w,b
  2150  001552  036F               	mulwf	(___flmul@b+1)& (0+255),b
  2151  001554  CFF3 F085          	movff	prodl,___flmul@temp
  2152  001558  CFF4 F086          	movff	prodh,___flmul@temp+1
  2153  00155C                     
  2154                           ; BSR set to: 0
  2155  00155C  5185               	movf	___flmul@temp& (0+255),w,b
  2156  00155E  277B               	addwf	___flmul@grs& (0+255),f,b
  2157  001560  5186               	movf	(___flmul@temp+1)& (0+255),w,b
  2158  001562  237C               	addwfc	(___flmul@grs+1)& (0+255),f,b
  2159  001564  0E00               	movlw	0
  2160  001566  237D               	addwfc	(___flmul@grs+2)& (0+255),f,b
  2161  001568  0E00               	movlw	0
  2162  00156A  237E               	addwfc	(___flmul@grs+3)& (0+255),f,b
  2163  00156C                     
  2164                           ; BSR set to: 0
  2165  00156C  5173               	movf	(___flmul@a+1)& (0+255),w,b
  2166  00156E  036E               	mulwf	___flmul@b& (0+255),b
  2167  001570  CFF3 F085          	movff	prodl,___flmul@temp
  2168  001574  CFF4 F086          	movff	prodh,___flmul@temp+1
  2169  001578                     
  2170                           ; BSR set to: 0
  2171  001578  5185               	movf	___flmul@temp& (0+255),w,b
  2172  00157A  277B               	addwf	___flmul@grs& (0+255),f,b
  2173  00157C  5186               	movf	(___flmul@temp+1)& (0+255),w,b
  2174  00157E  237C               	addwfc	(___flmul@grs+1)& (0+255),f,b
  2175  001580  0E00               	movlw	0
  2176  001582  237D               	addwfc	(___flmul@grs+2)& (0+255),f,b
  2177  001584  0E00               	movlw	0
  2178  001586  237E               	addwfc	(___flmul@grs+3)& (0+255),f,b
  2179  001588                     
  2180                           ; BSR set to: 0
  2181  001588  C07D  F07E         	movff	___flmul@grs+2,___flmul@grs+3
  2182  00158C  C07C  F07D         	movff	___flmul@grs+1,___flmul@grs+2
  2183  001590  C07B  F07C         	movff	___flmul@grs,___flmul@grs+1
  2184  001594  6B7B               	clrf	___flmul@grs& (0+255),b
  2185  001596  5172               	movf	___flmul@a& (0+255),w,b
  2186  001598  036E               	mulwf	___flmul@b& (0+255),b
  2187  00159A  CFF3 F085          	movff	prodl,___flmul@temp
  2188  00159E  CFF4 F086          	movff	prodh,___flmul@temp+1
  2189  0015A2                     
  2190                           ; BSR set to: 0
  2191  0015A2  5185               	movf	___flmul@temp& (0+255),w,b
  2192  0015A4  277B               	addwf	___flmul@grs& (0+255),f,b
  2193  0015A6  5186               	movf	(___flmul@temp+1)& (0+255),w,b
  2194  0015A8  237C               	addwfc	(___flmul@grs+1)& (0+255),f,b
  2195  0015AA  0E00               	movlw	0
  2196  0015AC  237D               	addwfc	(___flmul@grs+2)& (0+255),f,b
  2197  0015AE  0E00               	movlw	0
  2198  0015B0  237E               	addwfc	(___flmul@grs+3)& (0+255),f,b
  2199  0015B2                     
  2200                           ; BSR set to: 0
  2201  0015B2  5174               	movf	(___flmul@a+2)& (0+255),w,b
  2202  0015B4  036F               	mulwf	(___flmul@b+1)& (0+255),b
  2203  0015B6  CFF3 F085          	movff	prodl,___flmul@temp
  2204  0015BA  CFF4 F086          	movff	prodh,___flmul@temp+1
  2205  0015BE  5185               	movf	___flmul@temp& (0+255),w,b
  2206  0015C0  2781               	addwf	___flmul@prod& (0+255),f,b
  2207  0015C2  5186               	movf	(___flmul@temp+1)& (0+255),w,b
  2208  0015C4  2382               	addwfc	(___flmul@prod+1)& (0+255),f,b
  2209  0015C6  0E00               	movlw	0
  2210  0015C8  2383               	addwfc	(___flmul@prod+2)& (0+255),f,b
  2211  0015CA  0E00               	movlw	0
  2212  0015CC  2384               	addwfc	(___flmul@prod+3)& (0+255),f,b
  2213  0015CE                     
  2214                           ; BSR set to: 0
  2215  0015CE  5173               	movf	(___flmul@a+1)& (0+255),w,b
  2216  0015D0  0370               	mulwf	(___flmul@b+2)& (0+255),b
  2217  0015D2  CFF3 F085          	movff	prodl,___flmul@temp
  2218  0015D6  CFF4 F086          	movff	prodh,___flmul@temp+1
  2219  0015DA                     
  2220                           ; BSR set to: 0
  2221  0015DA  5185               	movf	___flmul@temp& (0+255),w,b
  2222  0015DC  2781               	addwf	___flmul@prod& (0+255),f,b
  2223  0015DE  5186               	movf	(___flmul@temp+1)& (0+255),w,b
  2224  0015E0  2382               	addwfc	(___flmul@prod+1)& (0+255),f,b
  2225  0015E2  0E00               	movlw	0
  2226  0015E4  2383               	addwfc	(___flmul@prod+2)& (0+255),f,b
  2227  0015E6  0E00               	movlw	0
  2228  0015E8  2384               	addwfc	(___flmul@prod+3)& (0+255),f,b
  2229  0015EA  5174               	movf	(___flmul@a+2)& (0+255),w,b
  2230  0015EC  0370               	mulwf	(___flmul@b+2)& (0+255),b
  2231  0015EE  CFF3 F085          	movff	prodl,___flmul@temp
  2232  0015F2  CFF4 F086          	movff	prodh,___flmul@temp+1
  2233  0015F6                     
  2234                           ; BSR set to: 0
  2235  0015F6  5185               	movf	___flmul@temp& (0+255),w,b
  2236  0015F8  6F76               	movwf	??___flmul& (0+255),b
  2237  0015FA  5186               	movf	(___flmul@temp+1)& (0+255),w,b
  2238  0015FC  6F77               	movwf	(??___flmul+1)& (0+255),b
  2239  0015FE  6B78               	clrf	(??___flmul+2)& (0+255),b
  2240  001600  6B79               	clrf	(??___flmul+3)& (0+255),b
  2241  001602  C078  F079         	movff	??___flmul+2,??___flmul+3
  2242  001606  C077  F078         	movff	??___flmul+1,??___flmul+2
  2243  00160A  C076  F077         	movff	??___flmul,??___flmul+1
  2244  00160E  6B76               	clrf	??___flmul& (0+255),b
  2245  001610  5176               	movf	??___flmul& (0+255),w,b
  2246  001612  2781               	addwf	___flmul@prod& (0+255),f,b
  2247  001614  5177               	movf	(??___flmul+1)& (0+255),w,b
  2248  001616  2382               	addwfc	(___flmul@prod+1)& (0+255),f,b
  2249  001618  5178               	movf	(??___flmul+2)& (0+255),w,b
  2250  00161A  2383               	addwfc	(___flmul@prod+2)& (0+255),f,b
  2251  00161C  5179               	movf	(??___flmul+3)& (0+255),w,b
  2252  00161E  2384               	addwfc	(___flmul@prod+3)& (0+255),f,b
  2253  001620                     
  2254                           ; BSR set to: 0
  2255  001620  C07B  F076         	movff	___flmul@grs,??___flmul
  2256  001624  C07C  F077         	movff	___flmul@grs+1,??___flmul+1
  2257  001628  C07D  F078         	movff	___flmul@grs+2,??___flmul+2
  2258  00162C  C07E  F079         	movff	___flmul@grs+3,??___flmul+3
  2259  001630  0E19               	movlw	25
  2260  001632  EF20  F00B         	goto	u2530
  2261  001636                     u2535:
  2262  001636  90D8               	bcf	status,0,c
  2263  001638  3379               	rrcf	(??___flmul+3)& (0+255),f,b
  2264  00163A  3378               	rrcf	(??___flmul+2)& (0+255),f,b
  2265  00163C  3377               	rrcf	(??___flmul+1)& (0+255),f,b
  2266  00163E  3376               	rrcf	??___flmul& (0+255),f,b
  2267  001640                     u2530:
  2268  001640  2EE8               	decfsz	wreg,f,c
  2269  001642  EF1B  F00B         	goto	u2535
  2270  001646  5176               	movf	??___flmul& (0+255),w,b
  2271  001648  2781               	addwf	___flmul@prod& (0+255),f,b
  2272  00164A  5177               	movf	(??___flmul+1)& (0+255),w,b
  2273  00164C  2382               	addwfc	(___flmul@prod+1)& (0+255),f,b
  2274  00164E  5178               	movf	(??___flmul+2)& (0+255),w,b
  2275  001650  2383               	addwfc	(___flmul@prod+2)& (0+255),f,b
  2276  001652  5179               	movf	(??___flmul+3)& (0+255),w,b
  2277  001654  2384               	addwfc	(___flmul@prod+3)& (0+255),f,b
  2278  001656                     
  2279                           ; BSR set to: 0
  2280  001656  C07D  F07E         	movff	___flmul@grs+2,___flmul@grs+3
  2281  00165A  C07C  F07D         	movff	___flmul@grs+1,___flmul@grs+2
  2282  00165E  C07B  F07C         	movff	___flmul@grs,___flmul@grs+1
  2283  001662  6B7B               	clrf	___flmul@grs& (0+255),b
  2284  001664                     
  2285                           ; BSR set to: 0
  2286  001664  517F               	movf	___flmul@aexp& (0+255),w,b
  2287  001666  C080  F076         	movff	___flmul@bexp,??___flmul
  2288  00166A  6B77               	clrf	(??___flmul+1)& (0+255),b
  2289  00166C  2776               	addwf	??___flmul& (0+255),f,b
  2290  00166E  0E00               	movlw	0
  2291  001670  2377               	addwfc	(??___flmul+1)& (0+255),f,b
  2292  001672  0E82               	movlw	130
  2293  001674  2576               	addwf	??___flmul& (0+255),w,b
  2294  001676  6F85               	movwf	___flmul@temp& (0+255),b
  2295  001678  0EFF               	movlw	255
  2296  00167A  2177               	addwfc	(??___flmul+1)& (0+255),w,b
  2297  00167C  6F86               	movwf	(___flmul@temp+1)& (0+255),b
  2298  00167E  EF56  F00B         	goto	l2568
  2299  001682                     l2562:
  2300                           
  2301                           ; BSR set to: 0
  2302  001682  90D8               	bcf	status,0,c
  2303  001684  3781               	rlcf	___flmul@prod& (0+255),f,b
  2304  001686  3782               	rlcf	(___flmul@prod+1)& (0+255),f,b
  2305  001688  3783               	rlcf	(___flmul@prod+2)& (0+255),f,b
  2306  00168A  3784               	rlcf	(___flmul@prod+3)& (0+255),f,b
  2307  00168C                     
  2308                           ; BSR set to: 0
  2309  00168C  AF7E               	btfss	(___flmul@grs+3)& (0+255),7,b
  2310  00168E  EF4B  F00B         	goto	u2541
  2311  001692  EF4D  F00B         	goto	u2540
  2312  001696                     u2541:
  2313  001696  EF4E  F00B         	goto	l885
  2314  00169A                     u2540:
  2315  00169A                     
  2316                           ; BSR set to: 0
  2317  00169A  8181               	bsf	___flmul@prod& (0+255),0,b
  2318  00169C                     l885:
  2319                           
  2320                           ; BSR set to: 0
  2321  00169C  90D8               	bcf	status,0,c
  2322  00169E  377B               	rlcf	___flmul@grs& (0+255),f,b
  2323  0016A0  377C               	rlcf	(___flmul@grs+1)& (0+255),f,b
  2324  0016A2  377D               	rlcf	(___flmul@grs+2)& (0+255),f,b
  2325  0016A4  377E               	rlcf	(___flmul@grs+3)& (0+255),f,b
  2326  0016A6  0785               	decf	___flmul@temp& (0+255),f,b
  2327  0016A8  A0D8               	btfss	status,0,c
  2328  0016AA  0786               	decf	(___flmul@temp+1)& (0+255),f,b
  2329  0016AC                     l2568:
  2330                           
  2331                           ; BSR set to: 0
  2332  0016AC  AF83               	btfss	(___flmul@prod+2)& (0+255),7,b
  2333  0016AE  EF5B  F00B         	goto	u2551
  2334  0016B2  EF5D  F00B         	goto	u2550
  2335  0016B6                     u2551:
  2336  0016B6  EF41  F00B         	goto	l2562
  2337  0016BA                     u2550:
  2338  0016BA                     
  2339                           ; BSR set to: 0
  2340  0016BA  0E00               	movlw	0
  2341  0016BC  6F7F               	movwf	___flmul@aexp& (0+255),b
  2342  0016BE                     
  2343                           ; BSR set to: 0
  2344  0016BE  AF7E               	btfss	(___flmul@grs+3)& (0+255),7,b
  2345  0016C0  EF64  F00B         	goto	u2561
  2346  0016C4  EF66  F00B         	goto	u2560
  2347  0016C8                     u2561:
  2348  0016C8  EF8A  F00B         	goto	l887
  2349  0016CC                     u2560:
  2350  0016CC                     
  2351                           ; BSR set to: 0
  2352  0016CC  0EFF               	movlw	255
  2353  0016CE  157B               	andwf	___flmul@grs& (0+255),w,b
  2354  0016D0  6F76               	movwf	??___flmul& (0+255),b
  2355  0016D2  0EFF               	movlw	255
  2356  0016D4  157C               	andwf	(___flmul@grs+1)& (0+255),w,b
  2357  0016D6  6F77               	movwf	(??___flmul+1)& (0+255),b
  2358  0016D8  0EFF               	movlw	255
  2359  0016DA  157D               	andwf	(___flmul@grs+2)& (0+255),w,b
  2360  0016DC  6F78               	movwf	(??___flmul+2)& (0+255),b
  2361  0016DE  0E7F               	movlw	127
  2362  0016E0  157E               	andwf	(___flmul@grs+3)& (0+255),w,b
  2363  0016E2  6F79               	movwf	(??___flmul+3)& (0+255),b
  2364  0016E4  5176               	movf	??___flmul& (0+255),w,b
  2365  0016E6  1177               	iorwf	(??___flmul+1)& (0+255),w,b
  2366  0016E8  1178               	iorwf	(??___flmul+2)& (0+255),w,b
  2367  0016EA  1179               	iorwf	(??___flmul+3)& (0+255),w,b
  2368  0016EC  B4D8               	btfsc	status,2,c
  2369  0016EE  EF7B  F00B         	goto	u2571
  2370  0016F2  EF7D  F00B         	goto	u2570
  2371  0016F6                     u2571:
  2372  0016F6  EF81  F00B         	goto	l888
  2373  0016FA                     u2570:
  2374  0016FA                     l2576:
  2375                           
  2376                           ; BSR set to: 0
  2377  0016FA  0E01               	movlw	1
  2378  0016FC  6F7F               	movwf	___flmul@aexp& (0+255),b
  2379  0016FE  EF8A  F00B         	goto	l887
  2380  001702                     l888:
  2381                           
  2382                           ; BSR set to: 0
  2383  001702  A181               	btfss	___flmul@prod& (0+255),0,b
  2384  001704  EF86  F00B         	goto	u2581
  2385  001708  EF88  F00B         	goto	u2580
  2386  00170C                     u2581:
  2387  00170C  EF8A  F00B         	goto	l887
  2388  001710                     u2580:
  2389  001710  EF7D  F00B         	goto	l2576
  2390  001714                     l887:
  2391                           
  2392                           ; BSR set to: 0
  2393  001714  517F               	movf	___flmul@aexp& (0+255),w,b
  2394  001716  B4D8               	btfsc	status,2,c
  2395  001718  EF90  F00B         	goto	u2591
  2396  00171C  EF92  F00B         	goto	u2590
  2397  001720                     u2591:
  2398  001720  EFB6  F00B         	goto	l2588
  2399  001724                     u2590:
  2400  001724                     
  2401                           ; BSR set to: 0
  2402  001724  0E01               	movlw	1
  2403  001726  2781               	addwf	___flmul@prod& (0+255),f,b
  2404  001728  0E00               	movlw	0
  2405  00172A  2382               	addwfc	(___flmul@prod+1)& (0+255),f,b
  2406  00172C  2383               	addwfc	(___flmul@prod+2)& (0+255),f,b
  2407  00172E  2384               	addwfc	(___flmul@prod+3)& (0+255),f,b
  2408  001730                     
  2409                           ; BSR set to: 0
  2410  001730  A184               	btfss	(___flmul@prod+3)& (0+255),0,b
  2411  001732  EF9D  F00B         	goto	u2601
  2412  001736  EF9F  F00B         	goto	u2600
  2413  00173A                     u2601:
  2414  00173A  EFB6  F00B         	goto	l2588
  2415  00173E                     u2600:
  2416  00173E                     
  2417                           ; BSR set to: 0
  2418  00173E  C081  F076         	movff	___flmul@prod,??___flmul
  2419  001742  C082  F077         	movff	___flmul@prod+1,??___flmul+1
  2420  001746  C083  F078         	movff	___flmul@prod+2,??___flmul+2
  2421  00174A  C084  F079         	movff	___flmul@prod+3,??___flmul+3
  2422  00174E  3579               	rlcf	(??___flmul+3)& (0+255),w,b
  2423  001750  3379               	rrcf	(??___flmul+3)& (0+255),f,b
  2424  001752  3378               	rrcf	(??___flmul+2)& (0+255),f,b
  2425  001754  3377               	rrcf	(??___flmul+1)& (0+255),f,b
  2426  001756  3376               	rrcf	??___flmul& (0+255),f,b
  2427  001758  C076  F081         	movff	??___flmul,___flmul@prod
  2428  00175C  C077  F082         	movff	??___flmul+1,___flmul@prod+1
  2429  001760  C078  F083         	movff	??___flmul+2,___flmul@prod+2
  2430  001764  C079  F084         	movff	??___flmul+3,___flmul@prod+3
  2431  001768                     
  2432                           ; BSR set to: 0
  2433  001768  4B85               	infsnz	___flmul@temp& (0+255),f,b
  2434  00176A  2B86               	incf	(___flmul@temp+1)& (0+255),f,b
  2435  00176C                     l2588:
  2436                           
  2437                           ; BSR set to: 0
  2438  00176C  BF86               	btfsc	(___flmul@temp+1)& (0+255),7,b
  2439  00176E  EFC1  F00B         	goto	u2611
  2440  001772  5186               	movf	(___flmul@temp+1)& (0+255),w,b
  2441  001774  E108               	bnz	u2610
  2442  001776  2985               	incf	___flmul@temp& (0+255),w,b
  2443  001778  A0D8               	btfss	status,0,c
  2444  00177A  EFC1  F00B         	goto	u2611
  2445  00177E  EFC3  F00B         	goto	u2610
  2446  001782                     u2611:
  2447  001782  EFCD  F00B         	goto	l2592
  2448  001786                     u2610:
  2449  001786                     
  2450                           ; BSR set to: 0
  2451  001786  0E00               	movlw	0
  2452  001788  6F81               	movwf	___flmul@prod& (0+255),b
  2453  00178A  0E00               	movlw	0
  2454  00178C  6F82               	movwf	(___flmul@prod+1)& (0+255),b
  2455  00178E  0E80               	movlw	128
  2456  001790  6F83               	movwf	(___flmul@prod+2)& (0+255),b
  2457  001792  0E7F               	movlw	127
  2458  001794  6F84               	movwf	(___flmul@prod+3)& (0+255),b
  2459  001796  EFFB  F00B         	goto	l2604
  2460  00179A                     l2592:
  2461                           
  2462                           ; BSR set to: 0
  2463  00179A  BF86               	btfsc	(___flmul@temp+1)& (0+255),7,b
  2464  00179C  EFDA  F00B         	goto	u2620
  2465  0017A0  5186               	movf	(___flmul@temp+1)& (0+255),w,b
  2466  0017A2  E106               	bnz	u2621
  2467  0017A4  0585               	decf	___flmul@temp& (0+255),w,b
  2468  0017A6  B0D8               	btfsc	status,0,c
  2469  0017A8  EFD8  F00B         	goto	u2621
  2470  0017AC  EFDA  F00B         	goto	u2620
  2471  0017B0                     u2621:
  2472  0017B0  EFE6  F00B         	goto	l895
  2473  0017B4                     u2620:
  2474  0017B4                     
  2475                           ; BSR set to: 0
  2476  0017B4  0E00               	movlw	0
  2477  0017B6  6F81               	movwf	___flmul@prod& (0+255),b
  2478  0017B8  0E00               	movlw	0
  2479  0017BA  6F82               	movwf	(___flmul@prod+1)& (0+255),b
  2480  0017BC  0E00               	movlw	0
  2481  0017BE  6F83               	movwf	(___flmul@prod+2)& (0+255),b
  2482  0017C0  0E00               	movlw	0
  2483  0017C2  6F84               	movwf	(___flmul@prod+3)& (0+255),b
  2484  0017C4  0E00               	movlw	0
  2485  0017C6  6F7A               	movwf	___flmul@sign& (0+255),b
  2486  0017C8  EFFB  F00B         	goto	l2604
  2487  0017CC                     l895:
  2488                           
  2489                           ; BSR set to: 0
  2490  0017CC  C085  F080         	movff	___flmul@temp,___flmul@bexp
  2491  0017D0                     
  2492                           ; BSR set to: 0
  2493  0017D0  0EFF               	movlw	255
  2494  0017D2  1781               	andwf	___flmul@prod& (0+255),f,b
  2495  0017D4  0EFF               	movlw	255
  2496  0017D6  1782               	andwf	(___flmul@prod+1)& (0+255),f,b
  2497  0017D8  0E7F               	movlw	127
  2498  0017DA  1783               	andwf	(___flmul@prod+2)& (0+255),f,b
  2499  0017DC  0E00               	movlw	0
  2500  0017DE  1784               	andwf	(___flmul@prod+3)& (0+255),f,b
  2501  0017E0                     
  2502                           ; BSR set to: 0
  2503  0017E0  A180               	btfss	___flmul@bexp& (0+255),0,b
  2504  0017E2  EFF5  F00B         	goto	u2631
  2505  0017E6  EFF7  F00B         	goto	u2630
  2506  0017EA                     u2631:
  2507  0017EA  EFF8  F00B         	goto	l2602
  2508  0017EE                     u2630:
  2509  0017EE                     
  2510                           ; BSR set to: 0
  2511  0017EE  8F83               	bsf	(___flmul@prod+2)& (0+255),7,b
  2512  0017F0                     l2602:
  2513                           
  2514                           ; BSR set to: 0
  2515  0017F0  90D8               	bcf	status,0,c
  2516  0017F2  3180               	rrcf	___flmul@bexp& (0+255),w,b
  2517  0017F4  6F84               	movwf	(___flmul@prod+3)& (0+255),b
  2518  0017F6                     l2604:
  2519                           
  2520                           ; BSR set to: 0
  2521  0017F6  517A               	movf	___flmul@sign& (0+255),w,b
  2522  0017F8  1384               	iorwf	(___flmul@prod+3)& (0+255),f,b
  2523  0017FA                     
  2524                           ; BSR set to: 0
  2525  0017FA  C081  F06E         	movff	___flmul@prod,?___flmul
  2526  0017FE  C082  F06F         	movff	___flmul@prod+1,?___flmul+1
  2527  001802  C083  F070         	movff	___flmul@prod+2,?___flmul+2
  2528  001806  C084  F071         	movff	___flmul@prod+3,?___flmul+3
  2529  00180A                     l882:
  2530                           
  2531                           ; BSR set to: 0
  2532  00180A  0012               	return		;funcret
  2533  00180C                     __end_of___flmul:
  2534                           	callstack 0
  2535                           
  2536 ;; *************** function ___fldiv *****************
  2537 ;; Defined at:
  2538 ;;		line 11 in file "C:\Program Files\Microchip\xc8\v2.32\pic\sources\c99\common\sprcdiv.c"
  2539 ;; Parameters:    Size  Location     Type
  2540 ;;  b               4   39[BANK0 ] unsigned char 
  2541 ;;  a               4   43[BANK0 ] unsigned char 
  2542 ;; Auto vars:     Size  Location     Type
  2543 ;;  grs             4   58[BANK0 ] unsigned long 
  2544 ;;  rem             4   51[BANK0 ] unsigned long 
  2545 ;;  new_exp         2   56[BANK0 ] short 
  2546 ;;  aexp            1   63[BANK0 ] unsigned char 
  2547 ;;  bexp            1   62[BANK0 ] unsigned char 
  2548 ;;  sign            1   55[BANK0 ] unsigned char 
  2549 ;; Return value:  Size  Location     Type
  2550 ;;                  4   39[BANK0 ] unsigned char 
  2551 ;; Registers used:
  2552 ;;		wreg, status,2, status,0
  2553 ;; Tracked objects:
  2554 ;;		On entry : 0/0
  2555 ;;		On exit  : 0/0
  2556 ;;		Unchanged: 0/0
  2557 ;; Data sizes:     COMRAM   BANK0   BANK1   BANK2   BANK3   BANK4   BANK5   BANK6   BANK7   BANK8   BANK9  BANK10  BANK1
      +1  BANK12  BANK13  BANK14
  2558 ;;      Params:         0       8       0       0       0       0       0       0       0       0       0       0       
      +0       0       0       0
  2559 ;;      Locals:         0      13       0       0       0       0       0       0       0       0       0       0       
      +0       0       0       0
  2560 ;;      Temps:          0       4       0       0       0       0       0       0       0       0       0       0       
      +0       0       0       0
  2561 ;;      Totals:         0      25       0       0       0       0       0       0       0       0       0       0       
      +0       0       0       0
  2562 ;;Total ram usage:       25 bytes
  2563 ;; Hardware stack levels used: 1
  2564 ;; Hardware stack levels required when called: 4
  2565 ;; This function calls:
  2566 ;;		Nothing
  2567 ;; This function is called by:
  2568 ;;		_UART_Init
  2569 ;; This function uses a non-reentrant model
  2570 ;;
  2571                           
  2572                           	psect	text6
  2573  00180C                     __ptext6:
  2574                           	callstack 0
  2575  00180C                     ___fldiv:
  2576                           	callstack 24
  2577  00180C  0100               	movlb	0	; () banked
  2578  00180E  518A               	movf	(___fldiv@b+3)& (0+255),w,b
  2579  001810  0B80               	andlw	128
  2580  001812  6F97               	movwf	___fldiv@sign& (0+255),b
  2581  001814  518A               	movf	(___fldiv@b+3)& (0+255),w,b
  2582  001816  258A               	addwf	(___fldiv@b+3)& (0+255),w,b
  2583  001818  6F9E               	movwf	___fldiv@bexp& (0+255),b
  2584  00181A                     
  2585                           ; BSR set to: 0
  2586  00181A  AF89               	btfss	(___fldiv@b+2)& (0+255),7,b
  2587  00181C  EF12  F00C         	goto	u2221
  2588  001820  EF14  F00C         	goto	u2220
  2589  001824                     u2221:
  2590  001824  EF15  F00C         	goto	l2348
  2591  001828                     u2220:
  2592  001828                     
  2593                           ; BSR set to: 0
  2594  001828  819E               	bsf	___fldiv@bexp& (0+255),0,b
  2595  00182A                     l2348:
  2596                           
  2597                           ; BSR set to: 0
  2598  00182A  519E               	movf	___fldiv@bexp& (0+255),w,b
  2599  00182C  B4D8               	btfsc	status,2,c
  2600  00182E  EF1B  F00C         	goto	u2231
  2601  001832  EF1D  F00C         	goto	u2230
  2602  001836                     u2231:
  2603  001836  EF32  F00C         	goto	l2358
  2604  00183A                     u2230:
  2605  00183A                     
  2606                           ; BSR set to: 0
  2607  00183A  299E               	incf	___fldiv@bexp& (0+255),w,b
  2608  00183C  A4D8               	btfss	status,2,c
  2609  00183E  EF23  F00C         	goto	u2241
  2610  001842  EF25  F00C         	goto	u2240
  2611  001846                     u2241:
  2612  001846  EF2D  F00C         	goto	l2354
  2613  00184A                     u2240:
  2614  00184A                     
  2615                           ; BSR set to: 0
  2616  00184A  0E00               	movlw	0
  2617  00184C  6F87               	movwf	___fldiv@b& (0+255),b
  2618  00184E  0E00               	movlw	0
  2619  001850  6F88               	movwf	(___fldiv@b+1)& (0+255),b
  2620  001852  0E00               	movlw	0
  2621  001854  6F89               	movwf	(___fldiv@b+2)& (0+255),b
  2622  001856  0E00               	movlw	0
  2623  001858  6F8A               	movwf	(___fldiv@b+3)& (0+255),b
  2624  00185A                     l2354:
  2625                           
  2626                           ; BSR set to: 0
  2627  00185A  8F89               	bsf	(___fldiv@b+2)& (0+255),7,b
  2628  00185C                     
  2629                           ; BSR set to: 0
  2630  00185C  0E00               	movlw	0
  2631  00185E  6F8A               	movwf	(___fldiv@b+3)& (0+255),b
  2632  001860  EF3A  F00C         	goto	l2360
  2633  001864                     l2358:
  2634                           
  2635                           ; BSR set to: 0
  2636  001864  0E00               	movlw	0
  2637  001866  6F87               	movwf	___fldiv@b& (0+255),b
  2638  001868  0E00               	movlw	0
  2639  00186A  6F88               	movwf	(___fldiv@b+1)& (0+255),b
  2640  00186C  0E00               	movlw	0
  2641  00186E  6F89               	movwf	(___fldiv@b+2)& (0+255),b
  2642  001870  0E00               	movlw	0
  2643  001872  6F8A               	movwf	(___fldiv@b+3)& (0+255),b
  2644  001874                     l2360:
  2645                           
  2646                           ; BSR set to: 0
  2647  001874  518E               	movf	(___fldiv@a+3)& (0+255),w,b
  2648  001876  0B80               	andlw	128
  2649  001878  1B97               	xorwf	___fldiv@sign& (0+255),f,b
  2650  00187A                     
  2651                           ; BSR set to: 0
  2652  00187A  518E               	movf	(___fldiv@a+3)& (0+255),w,b
  2653  00187C  258E               	addwf	(___fldiv@a+3)& (0+255),w,b
  2654  00187E  6F9F               	movwf	___fldiv@aexp& (0+255),b
  2655  001880                     
  2656                           ; BSR set to: 0
  2657  001880  AF8D               	btfss	(___fldiv@a+2)& (0+255),7,b
  2658  001882  EF45  F00C         	goto	u2251
  2659  001886  EF47  F00C         	goto	u2250
  2660  00188A                     u2251:
  2661  00188A  EF48  F00C         	goto	l2368
  2662  00188E                     u2250:
  2663  00188E                     
  2664                           ; BSR set to: 0
  2665  00188E  819F               	bsf	___fldiv@aexp& (0+255),0,b
  2666  001890                     l2368:
  2667                           
  2668                           ; BSR set to: 0
  2669  001890  519F               	movf	___fldiv@aexp& (0+255),w,b
  2670  001892  B4D8               	btfsc	status,2,c
  2671  001894  EF4E  F00C         	goto	u2261
  2672  001898  EF50  F00C         	goto	u2260
  2673  00189C                     u2261:
  2674  00189C  EF65  F00C         	goto	l2378
  2675  0018A0                     u2260:
  2676  0018A0                     
  2677                           ; BSR set to: 0
  2678  0018A0  299F               	incf	___fldiv@aexp& (0+255),w,b
  2679  0018A2  A4D8               	btfss	status,2,c
  2680  0018A4  EF56  F00C         	goto	u2271
  2681  0018A8  EF58  F00C         	goto	u2270
  2682  0018AC                     u2271:
  2683  0018AC  EF60  F00C         	goto	l2374
  2684  0018B0                     u2270:
  2685  0018B0                     
  2686                           ; BSR set to: 0
  2687  0018B0  0E00               	movlw	0
  2688  0018B2  6F8B               	movwf	___fldiv@a& (0+255),b
  2689  0018B4  0E00               	movlw	0
  2690  0018B6  6F8C               	movwf	(___fldiv@a+1)& (0+255),b
  2691  0018B8  0E00               	movlw	0
  2692  0018BA  6F8D               	movwf	(___fldiv@a+2)& (0+255),b
  2693  0018BC  0E00               	movlw	0
  2694  0018BE  6F8E               	movwf	(___fldiv@a+3)& (0+255),b
  2695  0018C0                     l2374:
  2696                           
  2697                           ; BSR set to: 0
  2698  0018C0  8F8D               	bsf	(___fldiv@a+2)& (0+255),7,b
  2699  0018C2                     
  2700                           ; BSR set to: 0
  2701  0018C2  0E00               	movlw	0
  2702  0018C4  6F8E               	movwf	(___fldiv@a+3)& (0+255),b
  2703  0018C6  EF6D  F00C         	goto	l2380
  2704  0018CA                     l2378:
  2705                           
  2706                           ; BSR set to: 0
  2707  0018CA  0E00               	movlw	0
  2708  0018CC  6F8B               	movwf	___fldiv@a& (0+255),b
  2709  0018CE  0E00               	movlw	0
  2710  0018D0  6F8C               	movwf	(___fldiv@a+1)& (0+255),b
  2711  0018D2  0E00               	movlw	0
  2712  0018D4  6F8D               	movwf	(___fldiv@a+2)& (0+255),b
  2713  0018D6  0E00               	movlw	0
  2714  0018D8  6F8E               	movwf	(___fldiv@a+3)& (0+255),b
  2715  0018DA                     l2380:
  2716                           
  2717                           ; BSR set to: 0
  2718  0018DA  518B               	movf	___fldiv@a& (0+255),w,b
  2719  0018DC  118C               	iorwf	(___fldiv@a+1)& (0+255),w,b
  2720  0018DE  118D               	iorwf	(___fldiv@a+2)& (0+255),w,b
  2721  0018E0  118E               	iorwf	(___fldiv@a+3)& (0+255),w,b
  2722  0018E2  A4D8               	btfss	status,2,c
  2723  0018E4  EF76  F00C         	goto	u2281
  2724  0018E8  EF78  F00C         	goto	u2280
  2725  0018EC                     u2281:
  2726  0018EC  EF90  F00C         	goto	l2392
  2727  0018F0                     u2280:
  2728  0018F0                     
  2729                           ; BSR set to: 0
  2730  0018F0  0E00               	movlw	0
  2731  0018F2  6F87               	movwf	___fldiv@b& (0+255),b
  2732  0018F4  0E00               	movlw	0
  2733  0018F6  6F88               	movwf	(___fldiv@b+1)& (0+255),b
  2734  0018F8  0E00               	movlw	0
  2735  0018FA  6F89               	movwf	(___fldiv@b+2)& (0+255),b
  2736  0018FC  0E00               	movlw	0
  2737  0018FE  6F8A               	movwf	(___fldiv@b+3)& (0+255),b
  2738  001900                     
  2739                           ; BSR set to: 0
  2740  001900  0E80               	movlw	128
  2741  001902  1389               	iorwf	(___fldiv@b+2)& (0+255),f,b
  2742  001904  0E7F               	movlw	127
  2743  001906  138A               	iorwf	(___fldiv@b+3)& (0+255),f,b
  2744  001908                     l2386:
  2745                           
  2746                           ; BSR set to: 0
  2747  001908  5197               	movf	___fldiv@sign& (0+255),w,b
  2748  00190A  138A               	iorwf	(___fldiv@b+3)& (0+255),f,b
  2749  00190C                     
  2750                           ; BSR set to: 0
  2751  00190C  C087  F087         	movff	___fldiv@b,?___fldiv
  2752  001910  C088  F088         	movff	___fldiv@b+1,?___fldiv+1
  2753  001914  C089  F089         	movff	___fldiv@b+2,?___fldiv+2
  2754  001918  C08A  F08A         	movff	___fldiv@b+3,?___fldiv+3
  2755  00191C  EFD3  F00D         	goto	l846
  2756  001920                     l2392:
  2757                           
  2758                           ; BSR set to: 0
  2759  001920  519E               	movf	___fldiv@bexp& (0+255),w,b
  2760  001922  A4D8               	btfss	status,2,c
  2761  001924  EF96  F00C         	goto	u2291
  2762  001928  EF98  F00C         	goto	u2290
  2763  00192C                     u2291:
  2764  00192C  EFA2  F00C         	goto	l2400
  2765  001930                     u2290:
  2766  001930                     
  2767                           ; BSR set to: 0
  2768  001930  0E00               	movlw	0
  2769  001932  6F87               	movwf	?___fldiv& (0+255),b
  2770  001934  0E00               	movlw	0
  2771  001936  6F88               	movwf	(?___fldiv+1)& (0+255),b
  2772  001938  0E00               	movlw	0
  2773  00193A  6F89               	movwf	(?___fldiv+2)& (0+255),b
  2774  00193C  0E00               	movlw	0
  2775  00193E  6F8A               	movwf	(?___fldiv+3)& (0+255),b
  2776  001940  EFD3  F00D         	goto	l846
  2777  001944                     l2400:
  2778                           
  2779                           ; BSR set to: 0
  2780  001944  519F               	movf	___fldiv@aexp& (0+255),w,b
  2781  001946  C09E  F08F         	movff	___fldiv@bexp,??___fldiv
  2782  00194A  6B90               	clrf	(??___fldiv+1)& (0+255),b
  2783  00194C  5F8F               	subwf	??___fldiv& (0+255),f,b
  2784  00194E  0E00               	movlw	0
  2785  001950  5B90               	subwfb	(??___fldiv+1)& (0+255),f,b
  2786  001952  0E7F               	movlw	127
  2787  001954  258F               	addwf	??___fldiv& (0+255),w,b
  2788  001956  6F98               	movwf	___fldiv@new_exp& (0+255),b
  2789  001958  0E00               	movlw	0
  2790  00195A  2190               	addwfc	(??___fldiv+1)& (0+255),w,b
  2791  00195C  6F99               	movwf	(___fldiv@new_exp+1)& (0+255),b
  2792  00195E                     
  2793                           ; BSR set to: 0
  2794  00195E  C087  F093         	movff	___fldiv@b,___fldiv@rem
  2795  001962  C088  F094         	movff	___fldiv@b+1,___fldiv@rem+1
  2796  001966  C089  F095         	movff	___fldiv@b+2,___fldiv@rem+2
  2797  00196A  C08A  F096         	movff	___fldiv@b+3,___fldiv@rem+3
  2798  00196E                     
  2799                           ; BSR set to: 0
  2800  00196E  0E00               	movlw	0
  2801  001970  6F87               	movwf	___fldiv@b& (0+255),b
  2802  001972  0E00               	movlw	0
  2803  001974  6F88               	movwf	(___fldiv@b+1)& (0+255),b
  2804  001976  0E00               	movlw	0
  2805  001978  6F89               	movwf	(___fldiv@b+2)& (0+255),b
  2806  00197A  0E00               	movlw	0
  2807  00197C  6F8A               	movwf	(___fldiv@b+3)& (0+255),b
  2808  00197E                     
  2809                           ; BSR set to: 0
  2810  00197E  0E00               	movlw	0
  2811  001980  6F9A               	movwf	___fldiv@grs& (0+255),b
  2812  001982  0E00               	movlw	0
  2813  001984  6F9B               	movwf	(___fldiv@grs+1)& (0+255),b
  2814  001986  0E00               	movlw	0
  2815  001988  6F9C               	movwf	(___fldiv@grs+2)& (0+255),b
  2816  00198A  0E00               	movlw	0
  2817  00198C  6F9D               	movwf	(___fldiv@grs+3)& (0+255),b
  2818  00198E                     
  2819                           ; BSR set to: 0
  2820  00198E  0E00               	movlw	0
  2821  001990  6F9F               	movwf	___fldiv@aexp& (0+255),b
  2822  001992  EF03  F00D         	goto	l848
  2823  001996                     l2410:
  2824                           
  2825                           ; BSR set to: 0
  2826  001996  519F               	movf	___fldiv@aexp& (0+255),w,b
  2827  001998  B4D8               	btfsc	status,2,c
  2828  00199A  EFD1  F00C         	goto	u2301
  2829  00199E  EFD3  F00C         	goto	u2300
  2830  0019A2                     u2301:
  2831  0019A2  EFEA  F00C         	goto	l2418
  2832  0019A6                     u2300:
  2833  0019A6                     
  2834                           ; BSR set to: 0
  2835  0019A6  90D8               	bcf	status,0,c
  2836  0019A8  3793               	rlcf	___fldiv@rem& (0+255),f,b
  2837  0019AA  3794               	rlcf	(___fldiv@rem+1)& (0+255),f,b
  2838  0019AC  3795               	rlcf	(___fldiv@rem+2)& (0+255),f,b
  2839  0019AE  3796               	rlcf	(___fldiv@rem+3)& (0+255),f,b
  2840  0019B0  90D8               	bcf	status,0,c
  2841  0019B2  3787               	rlcf	___fldiv@b& (0+255),f,b
  2842  0019B4  3788               	rlcf	(___fldiv@b+1)& (0+255),f,b
  2843  0019B6  3789               	rlcf	(___fldiv@b+2)& (0+255),f,b
  2844  0019B8  378A               	rlcf	(___fldiv@b+3)& (0+255),f,b
  2845  0019BA                     
  2846                           ; BSR set to: 0
  2847  0019BA  AF9D               	btfss	(___fldiv@grs+3)& (0+255),7,b
  2848  0019BC  EFE2  F00C         	goto	u2311
  2849  0019C0  EFE4  F00C         	goto	u2310
  2850  0019C4                     u2311:
  2851  0019C4  EFE5  F00C         	goto	l851
  2852  0019C8                     u2310:
  2853  0019C8                     
  2854                           ; BSR set to: 0
  2855  0019C8  8187               	bsf	___fldiv@b& (0+255),0,b
  2856  0019CA                     l851:
  2857                           
  2858                           ; BSR set to: 0
  2859  0019CA  90D8               	bcf	status,0,c
  2860  0019CC  379A               	rlcf	___fldiv@grs& (0+255),f,b
  2861  0019CE  379B               	rlcf	(___fldiv@grs+1)& (0+255),f,b
  2862  0019D0  379C               	rlcf	(___fldiv@grs+2)& (0+255),f,b
  2863  0019D2  379D               	rlcf	(___fldiv@grs+3)& (0+255),f,b
  2864  0019D4                     l2418:
  2865                           
  2866                           ; BSR set to: 0
  2867  0019D4  518B               	movf	___fldiv@a& (0+255),w,b
  2868  0019D6  5D93               	subwf	___fldiv@rem& (0+255),w,b
  2869  0019D8  518C               	movf	(___fldiv@a+1)& (0+255),w,b
  2870  0019DA  5994               	subwfb	(___fldiv@rem+1)& (0+255),w,b
  2871  0019DC  518D               	movf	(___fldiv@a+2)& (0+255),w,b
  2872  0019DE  5995               	subwfb	(___fldiv@rem+2)& (0+255),w,b
  2873  0019E0  518E               	movf	(___fldiv@a+3)& (0+255),w,b
  2874  0019E2  5996               	subwfb	(___fldiv@rem+3)& (0+255),w,b
  2875  0019E4  A0D8               	btfss	status,0,c
  2876  0019E6  EFF7  F00C         	goto	u2321
  2877  0019EA  EFF9  F00C         	goto	u2320
  2878  0019EE                     u2321:
  2879  0019EE  EF02  F00D         	goto	l2424
  2880  0019F2                     u2320:
  2881  0019F2                     
  2882                           ; BSR set to: 0
  2883  0019F2  8D9D               	bsf	(___fldiv@grs+3)& (0+255),6,b
  2884  0019F4                     
  2885                           ; BSR set to: 0
  2886  0019F4  518B               	movf	___fldiv@a& (0+255),w,b
  2887  0019F6  5F93               	subwf	___fldiv@rem& (0+255),f,b
  2888  0019F8  518C               	movf	(___fldiv@a+1)& (0+255),w,b
  2889  0019FA  5B94               	subwfb	(___fldiv@rem+1)& (0+255),f,b
  2890  0019FC  518D               	movf	(___fldiv@a+2)& (0+255),w,b
  2891  0019FE  5B95               	subwfb	(___fldiv@rem+2)& (0+255),f,b
  2892  001A00  518E               	movf	(___fldiv@a+3)& (0+255),w,b
  2893  001A02  5B96               	subwfb	(___fldiv@rem+3)& (0+255),f,b
  2894  001A04                     l2424:
  2895                           
  2896                           ; BSR set to: 0
  2897  001A04  2B9F               	incf	___fldiv@aexp& (0+255),f,b
  2898  001A06                     l848:
  2899                           
  2900                           ; BSR set to: 0
  2901  001A06  0E19               	movlw	25
  2902  001A08  659F               	cpfsgt	___fldiv@aexp& (0+255),b
  2903  001A0A  EF09  F00D         	goto	u2331
  2904  001A0E  EF0B  F00D         	goto	u2330
  2905  001A12                     u2331:
  2906  001A12  EFCB  F00C         	goto	l2410
  2907  001A16                     u2330:
  2908  001A16                     
  2909                           ; BSR set to: 0
  2910  001A16  5193               	movf	___fldiv@rem& (0+255),w,b
  2911  001A18  1194               	iorwf	(___fldiv@rem+1)& (0+255),w,b
  2912  001A1A  1195               	iorwf	(___fldiv@rem+2)& (0+255),w,b
  2913  001A1C  1196               	iorwf	(___fldiv@rem+3)& (0+255),w,b
  2914  001A1E  B4D8               	btfsc	status,2,c
  2915  001A20  EF14  F00D         	goto	u2341
  2916  001A24  EF16  F00D         	goto	u2340
  2917  001A28                     u2341:
  2918  001A28  EF2E  F00D         	goto	l2436
  2919  001A2C                     u2340:
  2920  001A2C                     
  2921                           ; BSR set to: 0
  2922  001A2C  819A               	bsf	___fldiv@grs& (0+255),0,b
  2923  001A2E  EF2E  F00D         	goto	l2436
  2924  001A32                     l2430:
  2925                           
  2926                           ; BSR set to: 0
  2927  001A32  90D8               	bcf	status,0,c
  2928  001A34  3787               	rlcf	___fldiv@b& (0+255),f,b
  2929  001A36  3788               	rlcf	(___fldiv@b+1)& (0+255),f,b
  2930  001A38  3789               	rlcf	(___fldiv@b+2)& (0+255),f,b
  2931  001A3A  378A               	rlcf	(___fldiv@b+3)& (0+255),f,b
  2932  001A3C                     
  2933                           ; BSR set to: 0
  2934  001A3C  AF9D               	btfss	(___fldiv@grs+3)& (0+255),7,b
  2935  001A3E  EF23  F00D         	goto	u2351
  2936  001A42  EF25  F00D         	goto	u2350
  2937  001A46                     u2351:
  2938  001A46  EF26  F00D         	goto	l857
  2939  001A4A                     u2350:
  2940  001A4A                     
  2941                           ; BSR set to: 0
  2942  001A4A  8187               	bsf	___fldiv@b& (0+255),0,b
  2943  001A4C                     l857:
  2944                           
  2945                           ; BSR set to: 0
  2946  001A4C  90D8               	bcf	status,0,c
  2947  001A4E  379A               	rlcf	___fldiv@grs& (0+255),f,b
  2948  001A50  379B               	rlcf	(___fldiv@grs+1)& (0+255),f,b
  2949  001A52  379C               	rlcf	(___fldiv@grs+2)& (0+255),f,b
  2950  001A54  379D               	rlcf	(___fldiv@grs+3)& (0+255),f,b
  2951  001A56  0798               	decf	___fldiv@new_exp& (0+255),f,b
  2952  001A58  A0D8               	btfss	status,0,c
  2953  001A5A  0799               	decf	(___fldiv@new_exp+1)& (0+255),f,b
  2954  001A5C                     l2436:
  2955                           
  2956                           ; BSR set to: 0
  2957  001A5C  AF89               	btfss	(___fldiv@b+2)& (0+255),7,b
  2958  001A5E  EF33  F00D         	goto	u2361
  2959  001A62  EF35  F00D         	goto	u2360
  2960  001A66                     u2361:
  2961  001A66  EF19  F00D         	goto	l2430
  2962  001A6A                     u2360:
  2963  001A6A                     
  2964                           ; BSR set to: 0
  2965  001A6A  0E00               	movlw	0
  2966  001A6C  6F9F               	movwf	___fldiv@aexp& (0+255),b
  2967  001A6E                     
  2968                           ; BSR set to: 0
  2969  001A6E  AF9D               	btfss	(___fldiv@grs+3)& (0+255),7,b
  2970  001A70  EF3C  F00D         	goto	u2371
  2971  001A74  EF3E  F00D         	goto	u2370
  2972  001A78                     u2371:
  2973  001A78  EF62  F00D         	goto	l859
  2974  001A7C                     u2370:
  2975  001A7C                     
  2976                           ; BSR set to: 0
  2977  001A7C  0EFF               	movlw	255
  2978  001A7E  159A               	andwf	___fldiv@grs& (0+255),w,b
  2979  001A80  6F8F               	movwf	??___fldiv& (0+255),b
  2980  001A82  0EFF               	movlw	255
  2981  001A84  159B               	andwf	(___fldiv@grs+1)& (0+255),w,b
  2982  001A86  6F90               	movwf	(??___fldiv+1)& (0+255),b
  2983  001A88  0EFF               	movlw	255
  2984  001A8A  159C               	andwf	(___fldiv@grs+2)& (0+255),w,b
  2985  001A8C  6F91               	movwf	(??___fldiv+2)& (0+255),b
  2986  001A8E  0E7F               	movlw	127
  2987  001A90  159D               	andwf	(___fldiv@grs+3)& (0+255),w,b
  2988  001A92  6F92               	movwf	(??___fldiv+3)& (0+255),b
  2989  001A94  518F               	movf	??___fldiv& (0+255),w,b
  2990  001A96  1190               	iorwf	(??___fldiv+1)& (0+255),w,b
  2991  001A98  1191               	iorwf	(??___fldiv+2)& (0+255),w,b
  2992  001A9A  1192               	iorwf	(??___fldiv+3)& (0+255),w,b
  2993  001A9C  B4D8               	btfsc	status,2,c
  2994  001A9E  EF53  F00D         	goto	u2381
  2995  001AA2  EF55  F00D         	goto	u2380
  2996  001AA6                     u2381:
  2997  001AA6  EF59  F00D         	goto	l860
  2998  001AAA                     u2380:
  2999  001AAA                     l2444:
  3000                           
  3001                           ; BSR set to: 0
  3002  001AAA  0E01               	movlw	1
  3003  001AAC  6F9F               	movwf	___fldiv@aexp& (0+255),b
  3004  001AAE  EF62  F00D         	goto	l859
  3005  001AB2                     l860:
  3006                           
  3007                           ; BSR set to: 0
  3008  001AB2  A187               	btfss	___fldiv@b& (0+255),0,b
  3009  001AB4  EF5E  F00D         	goto	u2391
  3010  001AB8  EF60  F00D         	goto	u2390
  3011  001ABC                     u2391:
  3012  001ABC  EF62  F00D         	goto	l859
  3013  001AC0                     u2390:
  3014  001AC0  EF55  F00D         	goto	l2444
  3015  001AC4                     l859:
  3016                           
  3017                           ; BSR set to: 0
  3018  001AC4  519F               	movf	___fldiv@aexp& (0+255),w,b
  3019  001AC6  B4D8               	btfsc	status,2,c
  3020  001AC8  EF68  F00D         	goto	u2401
  3021  001ACC  EF6A  F00D         	goto	u2400
  3022  001AD0                     u2401:
  3023  001AD0  EF8E  F00D         	goto	l2456
  3024  001AD4                     u2400:
  3025  001AD4                     
  3026                           ; BSR set to: 0
  3027  001AD4  0E01               	movlw	1
  3028  001AD6  2787               	addwf	___fldiv@b& (0+255),f,b
  3029  001AD8  0E00               	movlw	0
  3030  001ADA  2388               	addwfc	(___fldiv@b+1)& (0+255),f,b
  3031  001ADC  2389               	addwfc	(___fldiv@b+2)& (0+255),f,b
  3032  001ADE  238A               	addwfc	(___fldiv@b+3)& (0+255),f,b
  3033  001AE0                     
  3034                           ; BSR set to: 0
  3035  001AE0  A18A               	btfss	(___fldiv@b+3)& (0+255),0,b
  3036  001AE2  EF75  F00D         	goto	u2411
  3037  001AE6  EF77  F00D         	goto	u2410
  3038  001AEA                     u2411:
  3039  001AEA  EF8E  F00D         	goto	l2456
  3040  001AEE                     u2410:
  3041  001AEE                     
  3042                           ; BSR set to: 0
  3043  001AEE  C087  F08F         	movff	___fldiv@b,??___fldiv
  3044  001AF2  C088  F090         	movff	___fldiv@b+1,??___fldiv+1
  3045  001AF6  C089  F091         	movff	___fldiv@b+2,??___fldiv+2
  3046  001AFA  C08A  F092         	movff	___fldiv@b+3,??___fldiv+3
  3047  001AFE  3592               	rlcf	(??___fldiv+3)& (0+255),w,b
  3048  001B00  3392               	rrcf	(??___fldiv+3)& (0+255),f,b
  3049  001B02  3391               	rrcf	(??___fldiv+2)& (0+255),f,b
  3050  001B04  3390               	rrcf	(??___fldiv+1)& (0+255),f,b
  3051  001B06  338F               	rrcf	??___fldiv& (0+255),f,b
  3052  001B08  C08F  F087         	movff	??___fldiv,___fldiv@b
  3053  001B0C  C090  F088         	movff	??___fldiv+1,___fldiv@b+1
  3054  001B10  C091  F089         	movff	??___fldiv+2,___fldiv@b+2
  3055  001B14  C092  F08A         	movff	??___fldiv+3,___fldiv@b+3
  3056  001B18                     
  3057                           ; BSR set to: 0
  3058  001B18  4B98               	infsnz	___fldiv@new_exp& (0+255),f,b
  3059  001B1A  2B99               	incf	(___fldiv@new_exp+1)& (0+255),f,b
  3060  001B1C                     l2456:
  3061                           
  3062                           ; BSR set to: 0
  3063  001B1C  BF99               	btfsc	(___fldiv@new_exp+1)& (0+255),7,b
  3064  001B1E  EF99  F00D         	goto	u2421
  3065  001B22  5199               	movf	(___fldiv@new_exp+1)& (0+255),w,b
  3066  001B24  E108               	bnz	u2420
  3067  001B26  2998               	incf	___fldiv@new_exp& (0+255),w,b
  3068  001B28  A0D8               	btfss	status,0,c
  3069  001B2A  EF99  F00D         	goto	u2421
  3070  001B2E  EF9B  F00D         	goto	u2420
  3071  001B32                     u2421:
  3072  001B32  EFA6  F00D         	goto	l2460
  3073  001B36                     u2420:
  3074  001B36                     
  3075                           ; BSR set to: 0
  3076  001B36  0E00               	movlw	0
  3077  001B38  6F99               	movwf	(___fldiv@new_exp+1)& (0+255),b
  3078  001B3A  6998               	setf	___fldiv@new_exp& (0+255),b
  3079  001B3C  0E00               	movlw	0
  3080  001B3E  6F87               	movwf	___fldiv@b& (0+255),b
  3081  001B40  0E00               	movlw	0
  3082  001B42  6F88               	movwf	(___fldiv@b+1)& (0+255),b
  3083  001B44  0E00               	movlw	0
  3084  001B46  6F89               	movwf	(___fldiv@b+2)& (0+255),b
  3085  001B48  0E00               	movlw	0
  3086  001B4A  6F8A               	movwf	(___fldiv@b+3)& (0+255),b
  3087  001B4C                     l2460:
  3088                           
  3089                           ; BSR set to: 0
  3090  001B4C  BF99               	btfsc	(___fldiv@new_exp+1)& (0+255),7,b
  3091  001B4E  EFB3  F00D         	goto	u2430
  3092  001B52  5199               	movf	(___fldiv@new_exp+1)& (0+255),w,b
  3093  001B54  E106               	bnz	u2431
  3094  001B56  0598               	decf	___fldiv@new_exp& (0+255),w,b
  3095  001B58  B0D8               	btfsc	status,0,c
  3096  001B5A  EFB1  F00D         	goto	u2431
  3097  001B5E  EFB3  F00D         	goto	u2430
  3098  001B62                     u2431:
  3099  001B62  EFC1  F00D         	goto	l2464
  3100  001B66                     u2430:
  3101  001B66                     
  3102                           ; BSR set to: 0
  3103  001B66  0E00               	movlw	0
  3104  001B68  6F99               	movwf	(___fldiv@new_exp+1)& (0+255),b
  3105  001B6A  0E00               	movlw	0
  3106  001B6C  6F98               	movwf	___fldiv@new_exp& (0+255),b
  3107  001B6E  0E00               	movlw	0
  3108  001B70  6F87               	movwf	___fldiv@b& (0+255),b
  3109  001B72  0E00               	movlw	0
  3110  001B74  6F88               	movwf	(___fldiv@b+1)& (0+255),b
  3111  001B76  0E00               	movlw	0
  3112  001B78  6F89               	movwf	(___fldiv@b+2)& (0+255),b
  3113  001B7A  0E00               	movlw	0
  3114  001B7C  6F8A               	movwf	(___fldiv@b+3)& (0+255),b
  3115  001B7E  0E00               	movlw	0
  3116  001B80  6F97               	movwf	___fldiv@sign& (0+255),b
  3117  001B82                     l2464:
  3118                           
  3119                           ; BSR set to: 0
  3120  001B82  C098  F09E         	movff	___fldiv@new_exp,___fldiv@bexp
  3121  001B86                     
  3122                           ; BSR set to: 0
  3123  001B86  A19E               	btfss	___fldiv@bexp& (0+255),0,b
  3124  001B88  EFC8  F00D         	goto	u2441
  3125  001B8C  EFCA  F00D         	goto	u2440
  3126  001B90                     u2441:
  3127  001B90  EFCD  F00D         	goto	l2470
  3128  001B94                     u2440:
  3129  001B94                     
  3130                           ; BSR set to: 0
  3131  001B94  8F89               	bsf	(___fldiv@b+2)& (0+255),7,b
  3132  001B96  EFCE  F00D         	goto	l2472
  3133  001B9A                     l2470:
  3134                           
  3135                           ; BSR set to: 0
  3136  001B9A  9F89               	bcf	(___fldiv@b+2)& (0+255),7,b
  3137  001B9C                     l2472:
  3138                           
  3139                           ; BSR set to: 0
  3140  001B9C  90D8               	bcf	status,0,c
  3141  001B9E  319E               	rrcf	___fldiv@bexp& (0+255),w,b
  3142  001BA0  6F8A               	movwf	(___fldiv@b+3)& (0+255),b
  3143  001BA2  EF84  F00C         	goto	l2386
  3144  001BA6                     l846:
  3145                           
  3146                           ; BSR set to: 0
  3147  001BA6  0012               	return		;funcret
  3148  001BA8                     __end_of___fldiv:
  3149                           	callstack 0
  3150                           
  3151 ;; *************** function ___fladd *****************
  3152 ;; Defined at:
  3153 ;;		line 10 in file "C:\Program Files\Microchip\xc8\v2.32\pic\sources\c99\common\sprcadd.c"
  3154 ;; Parameters:    Size  Location     Type
  3155 ;;  b               4   64[BANK0 ] unsigned char 
  3156 ;;  a               4   68[BANK0 ] unsigned char 
  3157 ;; Auto vars:     Size  Location     Type
  3158 ;;  grs             1   79[BANK0 ] unsigned char 
  3159 ;;  bexp            1   78[BANK0 ] unsigned char 
  3160 ;;  aexp            1   77[BANK0 ] unsigned char 
  3161 ;;  signs           1   76[BANK0 ] unsigned char 
  3162 ;; Return value:  Size  Location     Type
  3163 ;;                  4   64[BANK0 ] unsigned char 
  3164 ;; Registers used:
  3165 ;;		wreg, status,2, status,0
  3166 ;; Tracked objects:
  3167 ;;		On entry : 0/0
  3168 ;;		On exit  : 0/0
  3169 ;;		Unchanged: 0/0
  3170 ;; Data sizes:     COMRAM   BANK0   BANK1   BANK2   BANK3   BANK4   BANK5   BANK6   BANK7   BANK8   BANK9  BANK10  BANK1
      +1  BANK12  BANK13  BANK14
  3171 ;;      Params:         0       8       0       0       0       0       0       0       0       0       0       0       
      +0       0       0       0
  3172 ;;      Locals:         0       4       0       0       0       0       0       0       0       0       0       0       
      +0       0       0       0
  3173 ;;      Temps:          0       4       0       0       0       0       0       0       0       0       0       0       
      +0       0       0       0
  3174 ;;      Totals:         0      16       0       0       0       0       0       0       0       0       0       0       
      +0       0       0       0
  3175 ;;Total ram usage:       16 bytes
  3176 ;; Hardware stack levels used: 1
  3177 ;; Hardware stack levels required when called: 4
  3178 ;; This function calls:
  3179 ;;		Nothing
  3180 ;; This function is called by:
  3181 ;;		_UART_Init
  3182 ;; This function uses a non-reentrant model
  3183 ;;
  3184                           
  3185                           	psect	text7
  3186  000F1E                     __ptext7:
  3187                           	callstack 0
  3188  000F1E                     ___fladd:
  3189                           	callstack 24
  3190  000F1E  0100               	movlb	0	; () banked
  3191  000F20  51A3               	movf	(___fladd@b+3)& (0+255),w,b
  3192  000F22  0B80               	andlw	128
  3193  000F24  6FAC               	movwf	___fladd@signs& (0+255),b
  3194  000F26  51A3               	movf	(___fladd@b+3)& (0+255),w,b
  3195  000F28  25A3               	addwf	(___fladd@b+3)& (0+255),w,b
  3196  000F2A  6FAE               	movwf	___fladd@bexp& (0+255),b
  3197  000F2C                     
  3198                           ; BSR set to: 0
  3199  000F2C  AFA2               	btfss	(___fladd@b+2)& (0+255),7,b
  3200  000F2E  EF9B  F007         	goto	u1831
  3201  000F32  EF9D  F007         	goto	u1830
  3202  000F36                     u1831:
  3203  000F36  EF9E  F007         	goto	l2146
  3204  000F3A                     u1830:
  3205  000F3A                     
  3206                           ; BSR set to: 0
  3207  000F3A  81AE               	bsf	___fladd@bexp& (0+255),0,b
  3208  000F3C                     l2146:
  3209                           
  3210                           ; BSR set to: 0
  3211  000F3C  51AE               	movf	___fladd@bexp& (0+255),w,b
  3212  000F3E  B4D8               	btfsc	status,2,c
  3213  000F40  EFA4  F007         	goto	u1841
  3214  000F44  EFA6  F007         	goto	u1840
  3215  000F48                     u1841:
  3216  000F48  EFBB  F007         	goto	l2156
  3217  000F4C                     u1840:
  3218  000F4C                     
  3219                           ; BSR set to: 0
  3220  000F4C  29AE               	incf	___fladd@bexp& (0+255),w,b
  3221  000F4E  A4D8               	btfss	status,2,c
  3222  000F50  EFAC  F007         	goto	u1851
  3223  000F54  EFAE  F007         	goto	u1850
  3224  000F58                     u1851:
  3225  000F58  EFB6  F007         	goto	l2152
  3226  000F5C                     u1850:
  3227  000F5C                     
  3228                           ; BSR set to: 0
  3229  000F5C  0E00               	movlw	0
  3230  000F5E  6FA0               	movwf	___fladd@b& (0+255),b
  3231  000F60  0E00               	movlw	0
  3232  000F62  6FA1               	movwf	(___fladd@b+1)& (0+255),b
  3233  000F64  0E00               	movlw	0
  3234  000F66  6FA2               	movwf	(___fladd@b+2)& (0+255),b
  3235  000F68  0E00               	movlw	0
  3236  000F6A  6FA3               	movwf	(___fladd@b+3)& (0+255),b
  3237  000F6C                     l2152:
  3238                           
  3239                           ; BSR set to: 0
  3240  000F6C  8FA2               	bsf	(___fladd@b+2)& (0+255),7,b
  3241  000F6E                     
  3242                           ; BSR set to: 0
  3243  000F6E  0E00               	movlw	0
  3244  000F70  6FA3               	movwf	(___fladd@b+3)& (0+255),b
  3245  000F72  EFC3  F007         	goto	l2158
  3246  000F76                     l2156:
  3247                           
  3248                           ; BSR set to: 0
  3249  000F76  0E00               	movlw	0
  3250  000F78  6FA0               	movwf	___fladd@b& (0+255),b
  3251  000F7A  0E00               	movlw	0
  3252  000F7C  6FA1               	movwf	(___fladd@b+1)& (0+255),b
  3253  000F7E  0E00               	movlw	0
  3254  000F80  6FA2               	movwf	(___fladd@b+2)& (0+255),b
  3255  000F82  0E00               	movlw	0
  3256  000F84  6FA3               	movwf	(___fladd@b+3)& (0+255),b
  3257  000F86                     l2158:
  3258                           
  3259                           ; BSR set to: 0
  3260  000F86  51A7               	movf	(___fladd@a+3)& (0+255),w,b
  3261  000F88  0B80               	andlw	128
  3262  000F8A  6FAD               	movwf	___fladd@aexp& (0+255),b
  3263  000F8C                     
  3264                           ; BSR set to: 0
  3265  000F8C  51AC               	movf	___fladd@signs& (0+255),w,b
  3266  000F8E  19AD               	xorwf	___fladd@aexp& (0+255),w,b
  3267  000F90  B4D8               	btfsc	status,2,c
  3268  000F92  EFCD  F007         	goto	u1861
  3269  000F96  EFCF  F007         	goto	u1860
  3270  000F9A                     u1861:
  3271  000F9A  EFD0  F007         	goto	l2164
  3272  000F9E                     u1860:
  3273  000F9E                     
  3274                           ; BSR set to: 0
  3275  000F9E  8DAC               	bsf	___fladd@signs& (0+255),6,b
  3276  000FA0                     l2164:
  3277                           
  3278                           ; BSR set to: 0
  3279  000FA0  51A7               	movf	(___fladd@a+3)& (0+255),w,b
  3280  000FA2  25A7               	addwf	(___fladd@a+3)& (0+255),w,b
  3281  000FA4  6FAD               	movwf	___fladd@aexp& (0+255),b
  3282  000FA6                     
  3283                           ; BSR set to: 0
  3284  000FA6  AFA6               	btfss	(___fladd@a+2)& (0+255),7,b
  3285  000FA8  EFD8  F007         	goto	u1871
  3286  000FAC  EFDA  F007         	goto	u1870
  3287  000FB0                     u1871:
  3288  000FB0  EFDB  F007         	goto	l2170
  3289  000FB4                     u1870:
  3290  000FB4                     
  3291                           ; BSR set to: 0
  3292  000FB4  81AD               	bsf	___fladd@aexp& (0+255),0,b
  3293  000FB6                     l2170:
  3294                           
  3295                           ; BSR set to: 0
  3296  000FB6  51AD               	movf	___fladd@aexp& (0+255),w,b
  3297  000FB8  B4D8               	btfsc	status,2,c
  3298  000FBA  EFE1  F007         	goto	u1881
  3299  000FBE  EFE3  F007         	goto	u1880
  3300  000FC2                     u1881:
  3301  000FC2  EFF8  F007         	goto	l2180
  3302  000FC6                     u1880:
  3303  000FC6                     
  3304                           ; BSR set to: 0
  3305  000FC6  29AD               	incf	___fladd@aexp& (0+255),w,b
  3306  000FC8  A4D8               	btfss	status,2,c
  3307  000FCA  EFE9  F007         	goto	u1891
  3308  000FCE  EFEB  F007         	goto	u1890
  3309  000FD2                     u1891:
  3310  000FD2  EFF3  F007         	goto	l2176
  3311  000FD6                     u1890:
  3312  000FD6                     
  3313                           ; BSR set to: 0
  3314  000FD6  0E00               	movlw	0
  3315  000FD8  6FA4               	movwf	___fladd@a& (0+255),b
  3316  000FDA  0E00               	movlw	0
  3317  000FDC  6FA5               	movwf	(___fladd@a+1)& (0+255),b
  3318  000FDE  0E00               	movlw	0
  3319  000FE0  6FA6               	movwf	(___fladd@a+2)& (0+255),b
  3320  000FE2  0E00               	movlw	0
  3321  000FE4  6FA7               	movwf	(___fladd@a+3)& (0+255),b
  3322  000FE6                     l2176:
  3323                           
  3324                           ; BSR set to: 0
  3325  000FE6  8FA6               	bsf	(___fladd@a+2)& (0+255),7,b
  3326  000FE8                     
  3327                           ; BSR set to: 0
  3328  000FE8  0E00               	movlw	0
  3329  000FEA  6FA7               	movwf	(___fladd@a+3)& (0+255),b
  3330  000FEC  EF00  F008         	goto	l2182
  3331  000FF0                     l2180:
  3332                           
  3333                           ; BSR set to: 0
  3334  000FF0  0E00               	movlw	0
  3335  000FF2  6FA4               	movwf	___fladd@a& (0+255),b
  3336  000FF4  0E00               	movlw	0
  3337  000FF6  6FA5               	movwf	(___fladd@a+1)& (0+255),b
  3338  000FF8  0E00               	movlw	0
  3339  000FFA  6FA6               	movwf	(___fladd@a+2)& (0+255),b
  3340  000FFC  0E00               	movlw	0
  3341  000FFE  6FA7               	movwf	(___fladd@a+3)& (0+255),b
  3342  001000                     l2182:
  3343                           
  3344                           ; BSR set to: 0
  3345  001000  51AE               	movf	___fladd@bexp& (0+255),w,b
  3346  001002  5DAD               	subwf	___fladd@aexp& (0+255),w,b
  3347  001004  B0D8               	btfsc	status,0,c
  3348  001006  EF07  F008         	goto	u1901
  3349  00100A  EF09  F008         	goto	u1900
  3350  00100E                     u1901:
  3351  00100E  EF30  F008         	goto	l2218
  3352  001012                     u1900:
  3353  001012                     
  3354                           ; BSR set to: 0
  3355  001012  ADAC               	btfss	___fladd@signs& (0+255),6,b
  3356  001014  EF0E  F008         	goto	u1911
  3357  001018  EF10  F008         	goto	u1910
  3358  00101C                     u1911:
  3359  00101C  EF12  F008         	goto	l2188
  3360  001020                     u1910:
  3361  001020                     
  3362                           ; BSR set to: 0
  3363  001020  0E80               	movlw	128
  3364  001022  1BAC               	xorwf	___fladd@signs& (0+255),f,b
  3365  001024                     l2188:
  3366                           
  3367                           ; BSR set to: 0
  3368  001024  C0AE  F0AF         	movff	___fladd@bexp,___fladd@grs
  3369  001028                     
  3370                           ; BSR set to: 0
  3371  001028  C0AD  F0AE         	movff	___fladd@aexp,___fladd@bexp
  3372  00102C                     
  3373                           ; BSR set to: 0
  3374  00102C  C0AF  F0AD         	movff	___fladd@grs,___fladd@aexp
  3375  001030                     
  3376                           ; BSR set to: 0
  3377  001030  C0A0  F0AF         	movff	___fladd@b,___fladd@grs
  3378  001034                     
  3379                           ; BSR set to: 0
  3380  001034  C0A4  F0A0         	movff	___fladd@a,___fladd@b
  3381  001038                     
  3382                           ; BSR set to: 0
  3383  001038  C0AF  F0A4         	movff	___fladd@grs,___fladd@a
  3384  00103C                     
  3385                           ; BSR set to: 0
  3386  00103C  C0A1  F0AF         	movff	___fladd@b+1,___fladd@grs
  3387  001040                     
  3388                           ; BSR set to: 0
  3389  001040  C0A5  F0A1         	movff	___fladd@a+1,___fladd@b+1
  3390  001044                     
  3391                           ; BSR set to: 0
  3392  001044  C0AF  F0A5         	movff	___fladd@grs,___fladd@a+1
  3393  001048                     
  3394                           ; BSR set to: 0
  3395  001048  C0A2  F0AF         	movff	___fladd@b+2,___fladd@grs
  3396  00104C                     
  3397                           ; BSR set to: 0
  3398  00104C  C0A6  F0A2         	movff	___fladd@a+2,___fladd@b+2
  3399  001050                     
  3400                           ; BSR set to: 0
  3401  001050  C0AF  F0A6         	movff	___fladd@grs,___fladd@a+2
  3402  001054                     
  3403                           ; BSR set to: 0
  3404  001054  C0A3  F0AF         	movff	___fladd@b+3,___fladd@grs
  3405  001058                     
  3406                           ; BSR set to: 0
  3407  001058  C0A7  F0A3         	movff	___fladd@a+3,___fladd@b+3
  3408  00105C                     
  3409                           ; BSR set to: 0
  3410  00105C  C0AF  F0A7         	movff	___fladd@grs,___fladd@a+3
  3411  001060                     l2218:
  3412                           
  3413                           ; BSR set to: 0
  3414  001060  0E00               	movlw	0
  3415  001062  6FAF               	movwf	___fladd@grs& (0+255),b
  3416  001064                     
  3417                           ; BSR set to: 0
  3418  001064  51AE               	movf	___fladd@bexp& (0+255),w,b
  3419  001066  C0AD  F0A8         	movff	___fladd@aexp,??___fladd
  3420  00106A  6BA9               	clrf	(??___fladd+1)& (0+255),b
  3421  00106C  5FA8               	subwf	??___fladd& (0+255),f,b
  3422  00106E  0E00               	movlw	0
  3423  001070  5BA9               	subwfb	(??___fladd+1)& (0+255),f,b
  3424  001072  BFA9               	btfsc	(??___fladd+1)& (0+255),7,b
  3425  001074  EF45  F008         	goto	u1921
  3426  001078  51A9               	movf	(??___fladd+1)& (0+255),w,b
  3427  00107A  E109               	bnz	u1920
  3428  00107C  0E1A               	movlw	26
  3429  00107E  5DA8               	subwf	??___fladd& (0+255),w,b
  3430  001080  A0D8               	btfss	status,0,c
  3431  001082  EF45  F008         	goto	u1921
  3432  001086  EF47  F008         	goto	u1920
  3433  00108A                     u1921:
  3434  00108A  EF7E  F008         	goto	l793
  3435  00108E                     u1920:
  3436  00108E                     
  3437                           ; BSR set to: 0
  3438  00108E  51A0               	movf	___fladd@b& (0+255),w,b
  3439  001090  11A1               	iorwf	(___fladd@b+1)& (0+255),w,b
  3440  001092  11A2               	iorwf	(___fladd@b+2)& (0+255),w,b
  3441  001094  11A3               	iorwf	(___fladd@b+3)& (0+255),w,b
  3442  001096  A4D8               	btfss	status,2,c
  3443  001098  EF50  F008         	goto	u1931
  3444  00109C  EF53  F008         	goto	u1930
  3445  0010A0                     u1931:
  3446  0010A0  0E01               	movlw	1
  3447  0010A2  EF54  F008         	goto	u1940
  3448  0010A6                     u1930:
  3449  0010A6  0E00               	movlw	0
  3450  0010A8                     u1940:
  3451  0010A8  6FAF               	movwf	___fladd@grs& (0+255),b
  3452  0010AA                     
  3453                           ; BSR set to: 0
  3454  0010AA  0E00               	movlw	0
  3455  0010AC  6FA0               	movwf	___fladd@b& (0+255),b
  3456  0010AE  0E00               	movlw	0
  3457  0010B0  6FA1               	movwf	(___fladd@b+1)& (0+255),b
  3458  0010B2  0E00               	movlw	0
  3459  0010B4  6FA2               	movwf	(___fladd@b+2)& (0+255),b
  3460  0010B6  0E00               	movlw	0
  3461  0010B8  6FA3               	movwf	(___fladd@b+3)& (0+255),b
  3462  0010BA                     
  3463                           ; BSR set to: 0
  3464  0010BA  C0AD  F0AE         	movff	___fladd@aexp,___fladd@bexp
  3465  0010BE  EF87  F008         	goto	l792
  3466  0010C2                     l794:
  3467                           
  3468                           ; BSR set to: 0
  3469  0010C2  A1AF               	btfss	___fladd@grs& (0+255),0,b
  3470  0010C4  EF66  F008         	goto	u1951
  3471  0010C8  EF68  F008         	goto	u1950
  3472  0010CC                     u1951:
  3473  0010CC  EF6E  F008         	goto	l2230
  3474  0010D0                     u1950:
  3475  0010D0                     
  3476                           ; BSR set to: 0
  3477  0010D0  90D8               	bcf	status,0,c
  3478  0010D2  31AF               	rrcf	___fladd@grs& (0+255),w,b
  3479  0010D4  0901               	iorlw	1
  3480  0010D6  6FAF               	movwf	___fladd@grs& (0+255),b
  3481  0010D8  EF70  F008         	goto	l2232
  3482  0010DC                     l2230:
  3483                           
  3484                           ; BSR set to: 0
  3485  0010DC  90D8               	bcf	status,0,c
  3486  0010DE  33AF               	rrcf	___fladd@grs& (0+255),f,b
  3487  0010E0                     l2232:
  3488                           
  3489                           ; BSR set to: 0
  3490  0010E0  A1A0               	btfss	___fladd@b& (0+255),0,b
  3491  0010E2  EF75  F008         	goto	u1961
  3492  0010E6  EF77  F008         	goto	u1960
  3493  0010EA                     u1961:
  3494  0010EA  EF78  F008         	goto	l2236
  3495  0010EE                     u1960:
  3496  0010EE                     
  3497                           ; BSR set to: 0
  3498  0010EE  8FAF               	bsf	___fladd@grs& (0+255),7,b
  3499  0010F0                     l2236:
  3500                           
  3501                           ; BSR set to: 0
  3502  0010F0  35A3               	rlcf	(___fladd@b+3)& (0+255),w,b
  3503  0010F2  33A3               	rrcf	(___fladd@b+3)& (0+255),f,b
  3504  0010F4  33A2               	rrcf	(___fladd@b+2)& (0+255),f,b
  3505  0010F6  33A1               	rrcf	(___fladd@b+1)& (0+255),f,b
  3506  0010F8  33A0               	rrcf	___fladd@b& (0+255),f,b
  3507  0010FA                     
  3508                           ; BSR set to: 0
  3509  0010FA  2BAE               	incf	___fladd@bexp& (0+255),f,b
  3510  0010FC                     l793:
  3511                           
  3512                           ; BSR set to: 0
  3513  0010FC  51AD               	movf	___fladd@aexp& (0+255),w,b
  3514  0010FE  5DAE               	subwf	___fladd@bexp& (0+255),w,b
  3515  001100  A0D8               	btfss	status,0,c
  3516  001102  EF85  F008         	goto	u1971
  3517  001106  EF87  F008         	goto	u1970
  3518  00110A                     u1971:
  3519  00110A  EF61  F008         	goto	l794
  3520  00110E                     u1970:
  3521  00110E                     l792:
  3522                           
  3523                           ; BSR set to: 0
  3524  00110E  BDAC               	btfsc	___fladd@signs& (0+255),6,b
  3525  001110  EF8C  F008         	goto	u1981
  3526  001114  EF8E  F008         	goto	u1980
  3527  001118                     u1981:
  3528  001118  EFCE  F008         	goto	l2264
  3529  00111C                     u1980:
  3530  00111C                     
  3531                           ; BSR set to: 0
  3532  00111C  51AE               	movf	___fladd@bexp& (0+255),w,b
  3533  00111E  A4D8               	btfss	status,2,c
  3534  001120  EF94  F008         	goto	u1991
  3535  001124  EF96  F008         	goto	u1990
  3536  001128                     u1991:
  3537  001128  EFA0  F008         	goto	l2246
  3538  00112C                     u1990:
  3539  00112C                     
  3540                           ; BSR set to: 0
  3541  00112C  0E00               	movlw	0
  3542  00112E  6FA0               	movwf	?___fladd& (0+255),b
  3543  001130  0E00               	movlw	0
  3544  001132  6FA1               	movwf	(?___fladd+1)& (0+255),b
  3545  001134  0E00               	movlw	0
  3546  001136  6FA2               	movwf	(?___fladd+2)& (0+255),b
  3547  001138  0E00               	movlw	0
  3548  00113A  6FA3               	movwf	(?___fladd+3)& (0+255),b
  3549  00113C  EFEF  F009         	goto	l801
  3550  001140                     l2246:
  3551                           
  3552                           ; BSR set to: 0
  3553  001140  51A4               	movf	___fladd@a& (0+255),w,b
  3554  001142  27A0               	addwf	___fladd@b& (0+255),f,b
  3555  001144  51A5               	movf	(___fladd@a+1)& (0+255),w,b
  3556  001146  23A1               	addwfc	(___fladd@b+1)& (0+255),f,b
  3557  001148  51A6               	movf	(___fladd@a+2)& (0+255),w,b
  3558  00114A  23A2               	addwfc	(___fladd@b+2)& (0+255),f,b
  3559  00114C  51A7               	movf	(___fladd@a+3)& (0+255),w,b
  3560  00114E  23A3               	addwfc	(___fladd@b+3)& (0+255),f,b
  3561  001150                     
  3562                           ; BSR set to: 0
  3563  001150  A1A3               	btfss	(___fladd@b+3)& (0+255),0,b
  3564  001152  EFAD  F008         	goto	u2001
  3565  001156  EFAF  F008         	goto	u2000
  3566  00115A                     u2001:
  3567  00115A  EF5B  F009         	goto	l2300
  3568  00115E                     u2000:
  3569  00115E                     
  3570                           ; BSR set to: 0
  3571  00115E  A1AF               	btfss	___fladd@grs& (0+255),0,b
  3572  001160  EFB4  F008         	goto	u2011
  3573  001164  EFB6  F008         	goto	u2010
  3574  001168                     u2011:
  3575  001168  EFBC  F008         	goto	l2254
  3576  00116C                     u2010:
  3577  00116C                     
  3578                           ; BSR set to: 0
  3579  00116C  90D8               	bcf	status,0,c
  3580  00116E  31AF               	rrcf	___fladd@grs& (0+255),w,b
  3581  001170  0901               	iorlw	1
  3582  001172  6FAF               	movwf	___fladd@grs& (0+255),b
  3583  001174  EFBE  F008         	goto	l2256
  3584  001178                     l2254:
  3585                           
  3586                           ; BSR set to: 0
  3587  001178  90D8               	bcf	status,0,c
  3588  00117A  33AF               	rrcf	___fladd@grs& (0+255),f,b
  3589  00117C                     l2256:
  3590                           
  3591                           ; BSR set to: 0
  3592  00117C  A1A0               	btfss	___fladd@b& (0+255),0,b
  3593  00117E  EFC3  F008         	goto	u2021
  3594  001182  EFC5  F008         	goto	u2020
  3595  001186                     u2021:
  3596  001186  EFC6  F008         	goto	l2260
  3597  00118A                     u2020:
  3598  00118A                     
  3599                           ; BSR set to: 0
  3600  00118A  8FAF               	bsf	___fladd@grs& (0+255),7,b
  3601  00118C                     l2260:
  3602                           
  3603                           ; BSR set to: 0
  3604  00118C  35A3               	rlcf	(___fladd@b+3)& (0+255),w,b
  3605  00118E  33A3               	rrcf	(___fladd@b+3)& (0+255),f,b
  3606  001190  33A2               	rrcf	(___fladd@b+2)& (0+255),f,b
  3607  001192  33A1               	rrcf	(___fladd@b+1)& (0+255),f,b
  3608  001194  33A0               	rrcf	___fladd@b& (0+255),f,b
  3609  001196                     
  3610                           ; BSR set to: 0
  3611  001196  2BAE               	incf	___fladd@bexp& (0+255),f,b
  3612  001198  EF5B  F009         	goto	l2300
  3613  00119C                     l2264:
  3614                           
  3615                           ; BSR set to: 0
  3616  00119C  51A4               	movf	___fladd@a& (0+255),w,b
  3617  00119E  5DA0               	subwf	___fladd@b& (0+255),w,b
  3618  0011A0  51A5               	movf	(___fladd@a+1)& (0+255),w,b
  3619  0011A2  59A1               	subwfb	(___fladd@b+1)& (0+255),w,b
  3620  0011A4  51A6               	movf	(___fladd@a+2)& (0+255),w,b
  3621  0011A6  59A2               	subwfb	(___fladd@b+2)& (0+255),w,b
  3622  0011A8  51A3               	movf	(___fladd@b+3)& (0+255),w,b
  3623  0011AA  0A80               	xorlw	128
  3624  0011AC  6FA8               	movwf	??___fladd& (0+255),b
  3625  0011AE  51A7               	movf	(___fladd@a+3)& (0+255),w,b
  3626  0011B0  0A80               	xorlw	128
  3627  0011B2  59A8               	subwfb	??___fladd& (0+255),w,b
  3628  0011B4  B0D8               	btfsc	status,0,c
  3629  0011B6  EFDF  F008         	goto	u2031
  3630  0011BA  EFE1  F008         	goto	u2030
  3631  0011BE                     u2031:
  3632  0011BE  EF0C  F009         	goto	l2274
  3633  0011C2                     u2030:
  3634  0011C2                     
  3635                           ; BSR set to: 0
  3636  0011C2  51A0               	movf	___fladd@b& (0+255),w,b
  3637  0011C4  5DA4               	subwf	___fladd@a& (0+255),w,b
  3638  0011C6  6FA8               	movwf	??___fladd& (0+255),b
  3639  0011C8  51A1               	movf	(___fladd@b+1)& (0+255),w,b
  3640  0011CA  59A5               	subwfb	(___fladd@a+1)& (0+255),w,b
  3641  0011CC  6FA9               	movwf	(??___fladd+1)& (0+255),b
  3642  0011CE  51A2               	movf	(___fladd@b+2)& (0+255),w,b
  3643  0011D0  59A6               	subwfb	(___fladd@a+2)& (0+255),w,b
  3644  0011D2  6FAA               	movwf	(??___fladd+2)& (0+255),b
  3645  0011D4  51A3               	movf	(___fladd@b+3)& (0+255),w,b
  3646  0011D6  59A7               	subwfb	(___fladd@a+3)& (0+255),w,b
  3647  0011D8  6FAB               	movwf	(??___fladd+3)& (0+255),b
  3648  0011DA  0EFF               	movlw	255
  3649  0011DC  25A8               	addwf	??___fladd& (0+255),w,b
  3650  0011DE  6FA0               	movwf	___fladd@b& (0+255),b
  3651  0011E0  0EFF               	movlw	255
  3652  0011E2  21A9               	addwfc	(??___fladd+1)& (0+255),w,b
  3653  0011E4  6FA1               	movwf	(___fladd@b+1)& (0+255),b
  3654  0011E6  0EFF               	movlw	255
  3655  0011E8  21AA               	addwfc	(??___fladd+2)& (0+255),w,b
  3656  0011EA  6FA2               	movwf	(___fladd@b+2)& (0+255),b
  3657  0011EC  0EFF               	movlw	255
  3658  0011EE  21AB               	addwfc	(??___fladd+3)& (0+255),w,b
  3659  0011F0  6FA3               	movwf	(___fladd@b+3)& (0+255),b
  3660  0011F2  0E80               	movlw	128
  3661  0011F4  1BAC               	xorwf	___fladd@signs& (0+255),f,b
  3662  0011F6                     
  3663                           ; BSR set to: 0
  3664  0011F6  6DAF               	negf	___fladd@grs& (0+255),b
  3665  0011F8                     
  3666                           ; BSR set to: 0
  3667  0011F8  51AF               	movf	___fladd@grs& (0+255),w,b
  3668  0011FA  A4D8               	btfss	status,2,c
  3669  0011FC  EF02  F009         	goto	u2041
  3670  001200  EF04  F009         	goto	u2040
  3671  001204                     u2041:
  3672  001204  EF14  F009         	goto	l809
  3673  001208                     u2040:
  3674  001208                     
  3675                           ; BSR set to: 0
  3676  001208  0E01               	movlw	1
  3677  00120A  27A0               	addwf	___fladd@b& (0+255),f,b
  3678  00120C  0E00               	movlw	0
  3679  00120E  23A1               	addwfc	(___fladd@b+1)& (0+255),f,b
  3680  001210  23A2               	addwfc	(___fladd@b+2)& (0+255),f,b
  3681  001212  23A3               	addwfc	(___fladd@b+3)& (0+255),f,b
  3682  001214  EF14  F009         	goto	l809
  3683  001218                     l2274:
  3684                           
  3685                           ; BSR set to: 0
  3686  001218  51A4               	movf	___fladd@a& (0+255),w,b
  3687  00121A  5FA0               	subwf	___fladd@b& (0+255),f,b
  3688  00121C  51A5               	movf	(___fladd@a+1)& (0+255),w,b
  3689  00121E  5BA1               	subwfb	(___fladd@b+1)& (0+255),f,b
  3690  001220  51A6               	movf	(___fladd@a+2)& (0+255),w,b
  3691  001222  5BA2               	subwfb	(___fladd@b+2)& (0+255),f,b
  3692  001224  51A7               	movf	(___fladd@a+3)& (0+255),w,b
  3693  001226  5BA3               	subwfb	(___fladd@b+3)& (0+255),f,b
  3694  001228                     l809:
  3695                           
  3696                           ; BSR set to: 0
  3697  001228  51A0               	movf	___fladd@b& (0+255),w,b
  3698  00122A  11A1               	iorwf	(___fladd@b+1)& (0+255),w,b
  3699  00122C  11A2               	iorwf	(___fladd@b+2)& (0+255),w,b
  3700  00122E  11A3               	iorwf	(___fladd@b+3)& (0+255),w,b
  3701  001230  A4D8               	btfss	status,2,c
  3702  001232  EF1D  F009         	goto	u2051
  3703  001236  EF1F  F009         	goto	u2050
  3704  00123A                     u2051:
  3705  00123A  EF54  F009         	goto	l2298
  3706  00123E                     u2050:
  3707  00123E                     
  3708                           ; BSR set to: 0
  3709  00123E  51AF               	movf	___fladd@grs& (0+255),w,b
  3710  001240  A4D8               	btfss	status,2,c
  3711  001242  EF25  F009         	goto	u2061
  3712  001246  EF27  F009         	goto	u2060
  3713  00124A                     u2061:
  3714  00124A  EF54  F009         	goto	l2298
  3715  00124E                     u2060:
  3716  00124E                     
  3717                           ; BSR set to: 0
  3718  00124E  0E00               	movlw	0
  3719  001250  6FA0               	movwf	?___fladd& (0+255),b
  3720  001252  0E00               	movlw	0
  3721  001254  6FA1               	movwf	(?___fladd+1)& (0+255),b
  3722  001256  0E00               	movlw	0
  3723  001258  6FA2               	movwf	(?___fladd+2)& (0+255),b
  3724  00125A  0E00               	movlw	0
  3725  00125C  6FA3               	movwf	(?___fladd+3)& (0+255),b
  3726  00125E  EFEF  F009         	goto	l801
  3727  001262                     l2282:
  3728                           
  3729                           ; BSR set to: 0
  3730  001262  90D8               	bcf	status,0,c
  3731  001264  37A0               	rlcf	___fladd@b& (0+255),f,b
  3732  001266  37A1               	rlcf	(___fladd@b+1)& (0+255),f,b
  3733  001268  37A2               	rlcf	(___fladd@b+2)& (0+255),f,b
  3734  00126A  37A3               	rlcf	(___fladd@b+3)& (0+255),f,b
  3735  00126C                     
  3736                           ; BSR set to: 0
  3737  00126C  AFAF               	btfss	___fladd@grs& (0+255),7,b
  3738  00126E  EF3B  F009         	goto	u2071
  3739  001272  EF3D  F009         	goto	u2070
  3740  001276                     u2071:
  3741  001276  EF3E  F009         	goto	l2288
  3742  00127A                     u2070:
  3743  00127A                     
  3744                           ; BSR set to: 0
  3745  00127A  81A0               	bsf	___fladd@b& (0+255),0,b
  3746  00127C                     l2288:
  3747                           
  3748                           ; BSR set to: 0
  3749  00127C  A1AF               	btfss	___fladd@grs& (0+255),0,b
  3750  00127E  EF43  F009         	goto	u2081
  3751  001282  EF45  F009         	goto	u2080
  3752  001286                     u2081:
  3753  001286  EF49  F009         	goto	l2292
  3754  00128A                     u2080:
  3755  00128A                     
  3756                           ; BSR set to: 0
  3757  00128A  80D8               	bsf	status,0,c
  3758  00128C  37AF               	rlcf	___fladd@grs& (0+255),f,b
  3759  00128E  EF4B  F009         	goto	l2294
  3760  001292                     l2292:
  3761                           
  3762                           ; BSR set to: 0
  3763  001292  90D8               	bcf	status,0,c
  3764  001294  37AF               	rlcf	___fladd@grs& (0+255),f,b
  3765  001296                     l2294:
  3766                           
  3767                           ; BSR set to: 0
  3768  001296  51AE               	movf	___fladd@bexp& (0+255),w,b
  3769  001298  B4D8               	btfsc	status,2,c
  3770  00129A  EF51  F009         	goto	u2091
  3771  00129E  EF53  F009         	goto	u2090
  3772  0012A2                     u2091:
  3773  0012A2  EF54  F009         	goto	l2298
  3774  0012A6                     u2090:
  3775  0012A6                     
  3776                           ; BSR set to: 0
  3777  0012A6  07AE               	decf	___fladd@bexp& (0+255),f,b
  3778  0012A8                     l2298:
  3779                           
  3780                           ; BSR set to: 0
  3781  0012A8  AFA2               	btfss	(___fladd@b+2)& (0+255),7,b
  3782  0012AA  EF59  F009         	goto	u2101
  3783  0012AE  EF5B  F009         	goto	u2100
  3784  0012B2                     u2101:
  3785  0012B2  EF31  F009         	goto	l2282
  3786  0012B6                     u2100:
  3787  0012B6                     l2300:
  3788                           
  3789                           ; BSR set to: 0
  3790  0012B6  0E00               	movlw	0
  3791  0012B8  6FAD               	movwf	___fladd@aexp& (0+255),b
  3792  0012BA                     
  3793                           ; BSR set to: 0
  3794  0012BA  AFAF               	btfss	___fladd@grs& (0+255),7,b
  3795  0012BC  EF62  F009         	goto	u2111
  3796  0012C0  EF64  F009         	goto	u2110
  3797  0012C4                     u2111:
  3798  0012C4  EF7C  F009         	goto	l818
  3799  0012C8                     u2110:
  3800  0012C8                     
  3801                           ; BSR set to: 0
  3802  0012C8  C0AF  F0A8         	movff	___fladd@grs,??___fladd
  3803  0012CC  0E7F               	movlw	127
  3804  0012CE  17A8               	andwf	??___fladd& (0+255),f,b
  3805  0012D0  B4D8               	btfsc	status,2,c
  3806  0012D2  EF6D  F009         	goto	u2121
  3807  0012D6  EF6F  F009         	goto	u2120
  3808  0012DA                     u2121:
  3809  0012DA  EF73  F009         	goto	l819
  3810  0012DE                     u2120:
  3811  0012DE                     l2306:
  3812                           
  3813                           ; BSR set to: 0
  3814  0012DE  0E01               	movlw	1
  3815  0012E0  6FAD               	movwf	___fladd@aexp& (0+255),b
  3816  0012E2  EF7C  F009         	goto	l818
  3817  0012E6                     l819:
  3818                           
  3819                           ; BSR set to: 0
  3820  0012E6  A1A0               	btfss	___fladd@b& (0+255),0,b
  3821  0012E8  EF78  F009         	goto	u2131
  3822  0012EC  EF7A  F009         	goto	u2130
  3823  0012F0                     u2131:
  3824  0012F0  EF7C  F009         	goto	l818
  3825  0012F4                     u2130:
  3826  0012F4  EF6F  F009         	goto	l2306
  3827  0012F8                     l818:
  3828                           
  3829                           ; BSR set to: 0
  3830  0012F8  51AD               	movf	___fladd@aexp& (0+255),w,b
  3831  0012FA  B4D8               	btfsc	status,2,c
  3832  0012FC  EF82  F009         	goto	u2141
  3833  001300  EF84  F009         	goto	u2140
  3834  001304                     u2141:
  3835  001304  EFAF  F009         	goto	l2318
  3836  001308                     u2140:
  3837  001308                     
  3838                           ; BSR set to: 0
  3839  001308  0E01               	movlw	1
  3840  00130A  27A0               	addwf	___fladd@b& (0+255),f,b
  3841  00130C  0E00               	movlw	0
  3842  00130E  23A1               	addwfc	(___fladd@b+1)& (0+255),f,b
  3843  001310  23A2               	addwfc	(___fladd@b+2)& (0+255),f,b
  3844  001312  23A3               	addwfc	(___fladd@b+3)& (0+255),f,b
  3845  001314                     
  3846                           ; BSR set to: 0
  3847  001314  A1A3               	btfss	(___fladd@b+3)& (0+255),0,b
  3848  001316  EF8F  F009         	goto	u2151
  3849  00131A  EF91  F009         	goto	u2150
  3850  00131E                     u2151:
  3851  00131E  EFAF  F009         	goto	l2318
  3852  001322                     u2150:
  3853  001322                     
  3854                           ; BSR set to: 0
  3855  001322  C0A0  F0A8         	movff	___fladd@b,??___fladd
  3856  001326  C0A1  F0A9         	movff	___fladd@b+1,??___fladd+1
  3857  00132A  C0A2  F0AA         	movff	___fladd@b+2,??___fladd+2
  3858  00132E  C0A3  F0AB         	movff	___fladd@b+3,??___fladd+3
  3859  001332  35AB               	rlcf	(??___fladd+3)& (0+255),w,b
  3860  001334  33AB               	rrcf	(??___fladd+3)& (0+255),f,b
  3861  001336  33AA               	rrcf	(??___fladd+2)& (0+255),f,b
  3862  001338  33A9               	rrcf	(??___fladd+1)& (0+255),f,b
  3863  00133A  33A8               	rrcf	??___fladd& (0+255),f,b
  3864  00133C  C0A8  F0A0         	movff	??___fladd,___fladd@b
  3865  001340  C0A9  F0A1         	movff	??___fladd+1,___fladd@b+1
  3866  001344  C0AA  F0A2         	movff	??___fladd+2,___fladd@b+2
  3867  001348  C0AB  F0A3         	movff	??___fladd+3,___fladd@b+3
  3868  00134C  29AE               	incf	___fladd@bexp& (0+255),w,b
  3869  00134E  B4D8               	btfsc	status,2,c
  3870  001350  EFAC  F009         	goto	u2161
  3871  001354  EFAE  F009         	goto	u2160
  3872  001358                     u2161:
  3873  001358  EFAF  F009         	goto	l2318
  3874  00135C                     u2160:
  3875  00135C                     
  3876                           ; BSR set to: 0
  3877  00135C  2BAE               	incf	___fladd@bexp& (0+255),f,b
  3878  00135E                     l2318:
  3879                           
  3880                           ; BSR set to: 0
  3881  00135E  29AE               	incf	___fladd@bexp& (0+255),w,b
  3882  001360  B4D8               	btfsc	status,2,c
  3883  001362  EFB5  F009         	goto	u2171
  3884  001366  EFB7  F009         	goto	u2170
  3885  00136A                     u2171:
  3886  00136A  EFBF  F009         	goto	l2322
  3887  00136E                     u2170:
  3888  00136E                     
  3889                           ; BSR set to: 0
  3890  00136E  51AE               	movf	___fladd@bexp& (0+255),w,b
  3891  001370  A4D8               	btfss	status,2,c
  3892  001372  EFBD  F009         	goto	u2181
  3893  001376  EFBF  F009         	goto	u2180
  3894  00137A                     u2181:
  3895  00137A  EFD1  F009         	goto	l2326
  3896  00137E                     u2180:
  3897  00137E                     l2322:
  3898                           
  3899                           ; BSR set to: 0
  3900  00137E  0E00               	movlw	0
  3901  001380  6FA0               	movwf	___fladd@b& (0+255),b
  3902  001382  0E00               	movlw	0
  3903  001384  6FA1               	movwf	(___fladd@b+1)& (0+255),b
  3904  001386  0E00               	movlw	0
  3905  001388  6FA2               	movwf	(___fladd@b+2)& (0+255),b
  3906  00138A  0E00               	movlw	0
  3907  00138C  6FA3               	movwf	(___fladd@b+3)& (0+255),b
  3908  00138E  51AE               	movf	___fladd@bexp& (0+255),w,b
  3909  001390  A4D8               	btfss	status,2,c
  3910  001392  EFCD  F009         	goto	u2191
  3911  001396  EFCF  F009         	goto	u2190
  3912  00139A                     u2191:
  3913  00139A  EFD1  F009         	goto	l2326
  3914  00139E                     u2190:
  3915  00139E                     
  3916                           ; BSR set to: 0
  3917  00139E  0E00               	movlw	0
  3918  0013A0  6FAC               	movwf	___fladd@signs& (0+255),b
  3919  0013A2                     l2326:
  3920                           
  3921                           ; BSR set to: 0
  3922  0013A2  A1AE               	btfss	___fladd@bexp& (0+255),0,b
  3923  0013A4  EFD6  F009         	goto	u2201
  3924  0013A8  EFD8  F009         	goto	u2200
  3925  0013AC                     u2201:
  3926  0013AC  EFDB  F009         	goto	l2330
  3927  0013B0                     u2200:
  3928  0013B0                     
  3929                           ; BSR set to: 0
  3930  0013B0  8FA2               	bsf	(___fladd@b+2)& (0+255),7,b
  3931  0013B2  EFDC  F009         	goto	l2332
  3932  0013B6                     l2330:
  3933                           
  3934                           ; BSR set to: 0
  3935  0013B6  9FA2               	bcf	(___fladd@b+2)& (0+255),7,b
  3936  0013B8                     l2332:
  3937                           
  3938                           ; BSR set to: 0
  3939  0013B8  90D8               	bcf	status,0,c
  3940  0013BA  31AE               	rrcf	___fladd@bexp& (0+255),w,b
  3941  0013BC  6FA3               	movwf	(___fladd@b+3)& (0+255),b
  3942  0013BE                     
  3943                           ; BSR set to: 0
  3944  0013BE  AFAC               	btfss	___fladd@signs& (0+255),7,b
  3945  0013C0  EFE4  F009         	goto	u2211
  3946  0013C4  EFE6  F009         	goto	u2210
  3947  0013C8                     u2211:
  3948  0013C8  EFE7  F009         	goto	l2338
  3949  0013CC                     u2210:
  3950  0013CC                     
  3951                           ; BSR set to: 0
  3952  0013CC  8FA3               	bsf	(___fladd@b+3)& (0+255),7,b
  3953  0013CE                     l2338:
  3954                           
  3955                           ; BSR set to: 0
  3956  0013CE  C0A0  F0A0         	movff	___fladd@b,?___fladd
  3957  0013D2  C0A1  F0A1         	movff	___fladd@b+1,?___fladd+1
  3958  0013D6  C0A2  F0A2         	movff	___fladd@b+2,?___fladd+2
  3959  0013DA  C0A3  F0A3         	movff	___fladd@b+3,?___fladd+3
  3960  0013DE                     l801:
  3961                           
  3962                           ; BSR set to: 0
  3963  0013DE  0012               	return		;funcret
  3964  0013E0                     __end_of___fladd:
  3965                           	callstack 0
  3966                           
  3967 ;; *************** function ___flge *****************
  3968 ;; Defined at:
  3969 ;;		line 4 in file "C:\Program Files\Microchip\xc8\v2.32\pic\sources\c99\common\flge.c"
  3970 ;; Parameters:    Size  Location     Type
  3971 ;;  ff1             4   14[BANK0 ] unsigned char 
  3972 ;;  ff2             4   18[BANK0 ] unsigned char 
  3973 ;; Auto vars:     Size  Location     Type
  3974 ;;		None
  3975 ;; Return value:  Size  Location     Type
  3976 ;;		None               void
  3977 ;; Registers used:
  3978 ;;		wreg, status,2, status,0
  3979 ;; Tracked objects:
  3980 ;;		On entry : 0/0
  3981 ;;		On exit  : 0/0
  3982 ;;		Unchanged: 0/0
  3983 ;; Data sizes:     COMRAM   BANK0   BANK1   BANK2   BANK3   BANK4   BANK5   BANK6   BANK7   BANK8   BANK9  BANK10  BANK1
      +1  BANK12  BANK13  BANK14
  3984 ;;      Params:         0       8       0       0       0       0       0       0       0       0       0       0       
      +0       0       0       0
  3985 ;;      Locals:         0       0       0       0       0       0       0       0       0       0       0       0       
      +0       0       0       0
  3986 ;;      Temps:          0       4       0       0       0       0       0       0       0       0       0       0       
      +0       0       0       0
  3987 ;;      Totals:         0      12       0       0       0       0       0       0       0       0       0       0       
      +0       0       0       0
  3988 ;;Total ram usage:       12 bytes
  3989 ;; Hardware stack levels used: 1
  3990 ;; Hardware stack levels required when called: 4
  3991 ;; This function calls:
  3992 ;;		Nothing
  3993 ;; This function is called by:
  3994 ;;		_main
  3995 ;; This function uses a non-reentrant model
  3996 ;;
  3997                           
  3998                           	psect	text8
  3999  002CBE                     __ptext8:
  4000                           	callstack 0
  4001  002CBE                     ___flge:
  4002                           	callstack 26
  4003  002CBE  0E00               	movlw	0
  4004  002CC0  0100               	movlb	0	; () banked
  4005  002CC2  156E               	andwf	___flge@ff1& (0+255),w,b
  4006  002CC4  6F76               	movwf	??___flge& (0+255),b
  4007  002CC6  0E00               	movlw	0
  4008  002CC8  156F               	andwf	(___flge@ff1+1)& (0+255),w,b
  4009  002CCA  6F77               	movwf	(??___flge+1)& (0+255),b
  4010  002CCC  0E80               	movlw	128
  4011  002CCE  1570               	andwf	(___flge@ff1+2)& (0+255),w,b
  4012  002CD0  6F78               	movwf	(??___flge+2)& (0+255),b
  4013  002CD2  0E7F               	movlw	127
  4014  002CD4  1571               	andwf	(___flge@ff1+3)& (0+255),w,b
  4015  002CD6  6F79               	movwf	(??___flge+3)& (0+255),b
  4016  002CD8  5176               	movf	??___flge& (0+255),w,b
  4017  002CDA  1177               	iorwf	(??___flge+1)& (0+255),w,b
  4018  002CDC  1178               	iorwf	(??___flge+2)& (0+255),w,b
  4019  002CDE  1179               	iorwf	(??___flge+3)& (0+255),w,b
  4020  002CE0  A4D8               	btfss	status,2,c
  4021  002CE2  EF75  F016         	goto	u3371
  4022  002CE6  EF77  F016         	goto	u3370
  4023  002CEA                     u3371:
  4024  002CEA  EF7F  F016         	goto	l3098
  4025  002CEE                     u3370:
  4026  002CEE                     
  4027                           ; BSR set to: 0
  4028  002CEE  0E00               	movlw	0
  4029  002CF0  6F6E               	movwf	___flge@ff1& (0+255),b
  4030  002CF2  0E00               	movlw	0
  4031  002CF4  6F6F               	movwf	(___flge@ff1+1)& (0+255),b
  4032  002CF6  0E00               	movlw	0
  4033  002CF8  6F70               	movwf	(___flge@ff1+2)& (0+255),b
  4034  002CFA  0E00               	movlw	0
  4035  002CFC  6F71               	movwf	(___flge@ff1+3)& (0+255),b
  4036  002CFE                     l3098:
  4037                           
  4038                           ; BSR set to: 0
  4039  002CFE  0E00               	movlw	0
  4040  002D00  1572               	andwf	___flge@ff2& (0+255),w,b
  4041  002D02  6F76               	movwf	??___flge& (0+255),b
  4042  002D04  0E00               	movlw	0
  4043  002D06  1573               	andwf	(___flge@ff2+1)& (0+255),w,b
  4044  002D08  6F77               	movwf	(??___flge+1)& (0+255),b
  4045  002D0A  0E80               	movlw	128
  4046  002D0C  1574               	andwf	(___flge@ff2+2)& (0+255),w,b
  4047  002D0E  6F78               	movwf	(??___flge+2)& (0+255),b
  4048  002D10  0E7F               	movlw	127
  4049  002D12  1575               	andwf	(___flge@ff2+3)& (0+255),w,b
  4050  002D14  6F79               	movwf	(??___flge+3)& (0+255),b
  4051  002D16  5176               	movf	??___flge& (0+255),w,b
  4052  002D18  1177               	iorwf	(??___flge+1)& (0+255),w,b
  4053  002D1A  1178               	iorwf	(??___flge+2)& (0+255),w,b
  4054  002D1C  1179               	iorwf	(??___flge+3)& (0+255),w,b
  4055  002D1E  A4D8               	btfss	status,2,c
  4056  002D20  EF94  F016         	goto	u3381
  4057  002D24  EF96  F016         	goto	u3380
  4058  002D28                     u3381:
  4059  002D28  EF9E  F016         	goto	l3102
  4060  002D2C                     u3380:
  4061  002D2C                     
  4062                           ; BSR set to: 0
  4063  002D2C  0E00               	movlw	0
  4064  002D2E  6F72               	movwf	___flge@ff2& (0+255),b
  4065  002D30  0E00               	movlw	0
  4066  002D32  6F73               	movwf	(___flge@ff2+1)& (0+255),b
  4067  002D34  0E00               	movlw	0
  4068  002D36  6F74               	movwf	(___flge@ff2+2)& (0+255),b
  4069  002D38  0E00               	movlw	0
  4070  002D3A  6F75               	movwf	(___flge@ff2+3)& (0+255),b
  4071  002D3C                     l3102:
  4072                           
  4073                           ; BSR set to: 0
  4074  002D3C  AF71               	btfss	(___flge@ff1+3)& (0+255),7,b
  4075  002D3E  EFA3  F016         	goto	u3391
  4076  002D42  EFA5  F016         	goto	u3390
  4077  002D46                     u3391:
  4078  002D46  EFAE  F016         	goto	l3106
  4079  002D4A                     u3390:
  4080  002D4A                     
  4081                           ; BSR set to: 0
  4082  002D4A  6D6E               	negf	___flge@ff1& (0+255),b
  4083  002D4C  1F6F               	comf	(___flge@ff1+1)& (0+255),f,b
  4084  002D4E  B0D8               	btfsc	status,0,c
  4085  002D50  2B6F               	incf	(___flge@ff1+1)& (0+255),f,b
  4086  002D52  1F70               	comf	(___flge@ff1+2)& (0+255),f,b
  4087  002D54  B0D8               	btfsc	status,0,c
  4088  002D56  2B70               	incf	(___flge@ff1+2)& (0+255),f,b
  4089  002D58  0E80               	movlw	128
  4090  002D5A  5771               	subfwb	(___flge@ff1+3)& (0+255),f,b
  4091  002D5C                     l3106:
  4092                           
  4093                           ; BSR set to: 0
  4094  002D5C  AF75               	btfss	(___flge@ff2+3)& (0+255),7,b
  4095  002D5E  EFB3  F016         	goto	u3401
  4096  002D62  EFB5  F016         	goto	u3400
  4097  002D66                     u3401:
  4098  002D66  EFBE  F016         	goto	l529
  4099  002D6A                     u3400:
  4100  002D6A                     
  4101                           ; BSR set to: 0
  4102  002D6A  6D72               	negf	___flge@ff2& (0+255),b
  4103  002D6C  1F73               	comf	(___flge@ff2+1)& (0+255),f,b
  4104  002D6E  B0D8               	btfsc	status,0,c
  4105  002D70  2B73               	incf	(___flge@ff2+1)& (0+255),f,b
  4106  002D72  1F74               	comf	(___flge@ff2+2)& (0+255),f,b
  4107  002D74  B0D8               	btfsc	status,0,c
  4108  002D76  2B74               	incf	(___flge@ff2+2)& (0+255),f,b
  4109  002D78  0E80               	movlw	128
  4110  002D7A  5775               	subfwb	(___flge@ff2+3)& (0+255),f,b
  4111  002D7C                     l529:
  4112                           
  4113                           ; BSR set to: 0
  4114  002D7C  0E00               	movlw	0
  4115  002D7E  1B6E               	xorwf	___flge@ff1& (0+255),f,b
  4116  002D80  0E00               	movlw	0
  4117  002D82  1B6F               	xorwf	(___flge@ff1+1)& (0+255),f,b
  4118  002D84  0E00               	movlw	0
  4119  002D86  1B70               	xorwf	(___flge@ff1+2)& (0+255),f,b
  4120  002D88  0E80               	movlw	128
  4121  002D8A  1B71               	xorwf	(___flge@ff1+3)& (0+255),f,b
  4122  002D8C  0E00               	movlw	0
  4123  002D8E  1B72               	xorwf	___flge@ff2& (0+255),f,b
  4124  002D90  0E00               	movlw	0
  4125  002D92  1B73               	xorwf	(___flge@ff2+1)& (0+255),f,b
  4126  002D94  0E00               	movlw	0
  4127  002D96  1B74               	xorwf	(___flge@ff2+2)& (0+255),f,b
  4128  002D98  0E80               	movlw	128
  4129  002D9A  1B75               	xorwf	(___flge@ff2+3)& (0+255),f,b
  4130  002D9C  5172               	movf	___flge@ff2& (0+255),w,b
  4131  002D9E  5D6E               	subwf	___flge@ff1& (0+255),w,b
  4132  002DA0  5173               	movf	(___flge@ff2+1)& (0+255),w,b
  4133  002DA2  596F               	subwfb	(___flge@ff1+1)& (0+255),w,b
  4134  002DA4  5174               	movf	(___flge@ff2+2)& (0+255),w,b
  4135  002DA6  5970               	subwfb	(___flge@ff1+2)& (0+255),w,b
  4136  002DA8  5175               	movf	(___flge@ff2+3)& (0+255),w,b
  4137  002DAA  5971               	subwfb	(___flge@ff1+3)& (0+255),w,b
  4138  002DAC  B0D8               	btfsc	status,0,c
  4139  002DAE  EFDB  F016         	goto	u3411
  4140  002DB2  EFDD  F016         	goto	u3410
  4141  002DB6                     u3411:
  4142  002DB6  EFE0  F016         	goto	l3112
  4143  002DBA                     u3410:
  4144  002DBA                     
  4145                           ; BSR set to: 0
  4146  002DBA  90D8               	bcf	status,0,c
  4147  002DBC  EFE1  F016         	goto	l534
  4148  002DC0                     l3112:
  4149                           
  4150                           ; BSR set to: 0
  4151  002DC0  80D8               	bsf	status,0,c
  4152  002DC2                     l534:
  4153                           
  4154                           ; BSR set to: 0
  4155  002DC2  0012               	return		;funcret
  4156  002DC4                     __end_of___flge:
  4157                           	callstack 0
  4158                           
  4159 ;; *************** function _T0_int2 *****************
  4160 ;; Defined at:
  4161 ;;		line 391 in file "main.c"
  4162 ;; Parameters:    Size  Location     Type
  4163 ;;  val             2    0[BANK0 ] short 
  4164 ;; Auto vars:     Size  Location     Type
  4165 ;;		None
  4166 ;; Return value:  Size  Location     Type
  4167 ;;                  1    wreg      _Bool 
  4168 ;; Registers used:
  4169 ;;		wreg, status,2, status,0
  4170 ;; Tracked objects:
  4171 ;;		On entry : 0/0
  4172 ;;		On exit  : 0/0
  4173 ;;		Unchanged: 0/0
  4174 ;; Data sizes:     COMRAM   BANK0   BANK1   BANK2   BANK3   BANK4   BANK5   BANK6   BANK7   BANK8   BANK9  BANK10  BANK1
      +1  BANK12  BANK13  BANK14
  4175 ;;      Params:         0       2       0       0       0       0       0       0       0       0       0       0       
      +0       0       0       0
  4176 ;;      Locals:         0       0       0       0       0       0       0       0       0       0       0       0       
      +0       0       0       0
  4177 ;;      Temps:          0       1       0       0       0       0       0       0       0       0       0       0       
      +0       0       0       0
  4178 ;;      Totals:         0       3       0       0       0       0       0       0       0       0       0       0       
      +0       0       0       0
  4179 ;;Total ram usage:        3 bytes
  4180 ;; Hardware stack levels used: 1
  4181 ;; Hardware stack levels required when called: 4
  4182 ;; This function calls:
  4183 ;;		Nothing
  4184 ;; This function is called by:
  4185 ;;		_main
  4186 ;; This function uses a non-reentrant model
  4187 ;;
  4188                           
  4189                           	psect	text9
  4190  00349C                     __ptext9:
  4191                           	callstack 0
  4192  00349C                     _T0_int2:
  4193                           	callstack 26
  4194  00349C                     
  4195                           ;main.c: 391: _Bool T0_int2(int16_t val);main.c: 392: {;main.c: 393:     static uint8_t 
      +                          flag = 0;;main.c: 394:     static int16_t cnt = 0;;main.c: 396:     if (flag != g_t0_f) 
      +                          {
  4196  00349C  0100               	movlb	0	; () banked
  4197  00349E  51CA               	movf	T0_int2@flag& (0+255),w,b
  4198  0034A0  1840               	xorwf	_g_t0_f^0,w,c
  4199  0034A2  B4D8               	btfsc	status,2,c
  4200  0034A4  EF56  F01A         	goto	u3271
  4201  0034A8  EF58  F01A         	goto	u3270
  4202  0034AC                     u3271:
  4203  0034AC  EF72  F01A         	goto	l3018
  4204  0034B0                     u3270:
  4205  0034B0                     
  4206                           ; BSR set to: 0
  4207                           ;main.c: 397:         flag = g_t0_f;
  4208  0034B0  C040  F0CA         	movff	_g_t0_f,T0_int2@flag
  4209  0034B4                     
  4210                           ; BSR set to: 0
  4211                           ;main.c: 398:         cnt++;
  4212  0034B4  4BC2               	infsnz	T0_int2@cnt& (0+255),f,b
  4213  0034B6  2BC3               	incf	(T0_int2@cnt+1)& (0+255),f,b
  4214  0034B8                     
  4215                           ; BSR set to: 0
  4216                           ;main.c: 399:         if (cnt >= val) {
  4217  0034B8  5160               	movf	T0_int2@val& (0+255),w,b
  4218  0034BA  5DC2               	subwf	T0_int2@cnt& (0+255),w,b
  4219  0034BC  51C3               	movf	(T0_int2@cnt+1)& (0+255),w,b
  4220  0034BE  0A80               	xorlw	128
  4221  0034C0  6F62               	movwf	??_T0_int2& (0+255),b
  4222  0034C2  5161               	movf	(T0_int2@val+1)& (0+255),w,b
  4223  0034C4  0A80               	xorlw	128
  4224  0034C6  5962               	subwfb	??_T0_int2& (0+255),w,b
  4225  0034C8  A0D8               	btfss	status,0,c
  4226  0034CA  EF69  F01A         	goto	u3281
  4227  0034CE  EF6B  F01A         	goto	u3280
  4228  0034D2                     u3281:
  4229  0034D2  EF72  F01A         	goto	l3018
  4230  0034D6                     u3280:
  4231  0034D6                     
  4232                           ; BSR set to: 0
  4233                           ;main.c: 400:             cnt = 0;
  4234  0034D6  0E00               	movlw	0
  4235  0034D8  6FC3               	movwf	(T0_int2@cnt+1)& (0+255),b
  4236  0034DA  0E00               	movlw	0
  4237  0034DC  6FC2               	movwf	T0_int2@cnt& (0+255),b
  4238  0034DE                     
  4239                           ; BSR set to: 0
  4240                           ;main.c: 401:             return 1;
  4241  0034DE  0E01               	movlw	1
  4242  0034E0  EF73  F01A         	goto	l225
  4243  0034E4                     l3018:
  4244                           
  4245                           ; BSR set to: 0
  4246                           ;main.c: 405:     return 0;
  4247  0034E4  0E00               	movlw	0
  4248  0034E6                     l225:
  4249                           
  4250                           ; BSR set to: 0
  4251  0034E6  0012               	return		;funcret
  4252  0034E8                     __end_of_T0_int2:
  4253                           	callstack 0
  4254                           
  4255 ;; *************** function _T0_int *****************
  4256 ;; Defined at:
  4257 ;;		line 373 in file "main.c"
  4258 ;; Parameters:    Size  Location     Type
  4259 ;;  val             2    0[BANK0 ] short 
  4260 ;; Auto vars:     Size  Location     Type
  4261 ;;		None
  4262 ;; Return value:  Size  Location     Type
  4263 ;;                  1    wreg      _Bool 
  4264 ;; Registers used:
  4265 ;;		wreg, status,2, status,0
  4266 ;; Tracked objects:
  4267 ;;		On entry : 0/0
  4268 ;;		On exit  : 0/0
  4269 ;;		Unchanged: 0/0
  4270 ;; Data sizes:     COMRAM   BANK0   BANK1   BANK2   BANK3   BANK4   BANK5   BANK6   BANK7   BANK8   BANK9  BANK10  BANK1
      +1  BANK12  BANK13  BANK14
  4271 ;;      Params:         0       2       0       0       0       0       0       0       0       0       0       0       
      +0       0       0       0
  4272 ;;      Locals:         0       0       0       0       0       0       0       0       0       0       0       0       
      +0       0       0       0
  4273 ;;      Temps:          0       1       0       0       0       0       0       0       0       0       0       0       
      +0       0       0       0
  4274 ;;      Totals:         0       3       0       0       0       0       0       0       0       0       0       0       
      +0       0       0       0
  4275 ;;Total ram usage:        3 bytes
  4276 ;; Hardware stack levels used: 1
  4277 ;; Hardware stack levels required when called: 4
  4278 ;; This function calls:
  4279 ;;		Nothing
  4280 ;; This function is called by:
  4281 ;;		_main
  4282 ;; This function uses a non-reentrant model
  4283 ;;
  4284                           
  4285                           	psect	text10
  4286  0034E8                     __ptext10:
  4287                           	callstack 0
  4288  0034E8                     _T0_int:
  4289                           	callstack 26
  4290  0034E8                     
  4291                           ;main.c: 373: _Bool T0_int(int16_t val);main.c: 374: {;main.c: 375:     static uint8_t f
      +                          lag = 0;;main.c: 376:     static int16_t cnt = 0;;main.c: 378:     if (flag != g_t0_f) {
  4292  0034E8  0100               	movlb	0	; () banked
  4293  0034EA  51CB               	movf	T0_int@flag& (0+255),w,b
  4294  0034EC  1840               	xorwf	_g_t0_f^0,w,c
  4295  0034EE  B4D8               	btfsc	status,2,c
  4296  0034F0  EF7C  F01A         	goto	u3191
  4297  0034F4  EF7E  F01A         	goto	u3190
  4298  0034F8                     u3191:
  4299  0034F8  EF98  F01A         	goto	l2970
  4300  0034FC                     u3190:
  4301  0034FC                     
  4302                           ; BSR set to: 0
  4303                           ;main.c: 379:         flag = g_t0_f;
  4304  0034FC  C040  F0CB         	movff	_g_t0_f,T0_int@flag
  4305  003500                     
  4306                           ; BSR set to: 0
  4307                           ;main.c: 380:         cnt++;
  4308  003500  4BC4               	infsnz	T0_int@cnt& (0+255),f,b
  4309  003502  2BC5               	incf	(T0_int@cnt+1)& (0+255),f,b
  4310  003504                     
  4311                           ; BSR set to: 0
  4312                           ;main.c: 381:         if (cnt >= val) {
  4313  003504  5160               	movf	T0_int@val& (0+255),w,b
  4314  003506  5DC4               	subwf	T0_int@cnt& (0+255),w,b
  4315  003508  51C5               	movf	(T0_int@cnt+1)& (0+255),w,b
  4316  00350A  0A80               	xorlw	128
  4317  00350C  6F62               	movwf	??_T0_int& (0+255),b
  4318  00350E  5161               	movf	(T0_int@val+1)& (0+255),w,b
  4319  003510  0A80               	xorlw	128
  4320  003512  5962               	subwfb	??_T0_int& (0+255),w,b
  4321  003514  A0D8               	btfss	status,0,c
  4322  003516  EF8F  F01A         	goto	u3201
  4323  00351A  EF91  F01A         	goto	u3200
  4324  00351E                     u3201:
  4325  00351E  EF98  F01A         	goto	l2970
  4326  003522                     u3200:
  4327  003522                     
  4328                           ; BSR set to: 0
  4329                           ;main.c: 382:             cnt = 0;
  4330  003522  0E00               	movlw	0
  4331  003524  6FC5               	movwf	(T0_int@cnt+1)& (0+255),b
  4332  003526  0E00               	movlw	0
  4333  003528  6FC4               	movwf	T0_int@cnt& (0+255),b
  4334  00352A                     
  4335                           ; BSR set to: 0
  4336                           ;main.c: 383:             return 1;
  4337  00352A  0E01               	movlw	1
  4338  00352C  EF99  F01A         	goto	l216
  4339  003530                     l2970:
  4340                           
  4341                           ; BSR set to: 0
  4342                           ;main.c: 387:     return 0;
  4343  003530  0E00               	movlw	0
  4344  003532                     l216:
  4345                           
  4346                           ; BSR set to: 0
  4347  003532  0012               	return		;funcret
  4348  003534                     __end_of_T0_int:
  4349                           	callstack 0
  4350                           
  4351 ;; *************** function _NTC_Write *****************
  4352 ;; Defined at:
  4353 ;;		line 182 in file "main.c"
  4354 ;; Parameters:    Size  Location     Type
  4355 ;;  data            4   39[BANK0 ] unsigned long 
  4356 ;; Auto vars:     Size  Location     Type
  4357 ;;  buff            6   47[BANK0 ] unsigned char [6]
  4358 ;;  temp            3   53[BANK0 ] unsigned um
  4359 ;; Return value:  Size  Location     Type
  4360 ;;                  1    wreg      void 
  4361 ;; Registers used:
  4362 ;;		wreg, status,2, status,0, cstack
  4363 ;; Tracked objects:
  4364 ;;		On entry : 0/0
  4365 ;;		On exit  : 0/0
  4366 ;;		Unchanged: 0/0
  4367 ;; Data sizes:     COMRAM   BANK0   BANK1   BANK2   BANK3   BANK4   BANK5   BANK6   BANK7   BANK8   BANK9  BANK10  BANK1
      +1  BANK12  BANK13  BANK14
  4368 ;;      Params:         0       4       0       0       0       0       0       0       0       0       0       0       
      +0       0       0       0
  4369 ;;      Locals:         0       9       0       0       0       0       0       0       0       0       0       0       
      +0       0       0       0
  4370 ;;      Temps:          0       4       0       0       0       0       0       0       0       0       0       0       
      +0       0       0       0
  4371 ;;      Totals:         0      17       0       0       0       0       0       0       0       0       0       0       
      +0       0       0       0
  4372 ;;Total ram usage:       17 bytes
  4373 ;; Hardware stack levels used: 1
  4374 ;; Hardware stack levels required when called: 5
  4375 ;; This function calls:
  4376 ;;		_IC595_Write
  4377 ;;		___lldiv
  4378 ;;		___llmod
  4379 ;; This function is called by:
  4380 ;;		_main
  4381 ;; This function uses a non-reentrant model
  4382 ;;
  4383                           
  4384                           	psect	text11
  4385  001BA8                     __ptext11:
  4386                           	callstack 0
  4387  001BA8                     _NTC_Write:
  4388                           	callstack 25
  4389  001BA8                     
  4390                           ;main.c: 182: void NTC_Write(uint32_t data);main.c: 183: {;main.c: 184:     uint8_t buff
      +                          [6];;main.c: 185:     uint24_t temp = 0;
  4391  001BA8  0E00               	movlw	0
  4392  001BAA  0100               	movlb	0	; () banked
  4393  001BAC  6F95               	movwf	NTC_Write@temp& (0+255),b
  4394  001BAE  0E00               	movlw	0
  4395  001BB0  6F96               	movwf	(NTC_Write@temp+1)& (0+255),b
  4396  001BB2  0E00               	movlw	0
  4397  001BB4  6F97               	movwf	(NTC_Write@temp+2)& (0+255),b
  4398  001BB6                     
  4399                           ; BSR set to: 0
  4400                           ;main.c: 187:     if (data > 999999) {
  4401  001BB6  518A               	movf	(NTC_Write@data+3)& (0+255),w,b
  4402  001BB8  E10D               	bnz	u3300
  4403  001BBA  0E40               	movlw	64
  4404  001BBC  5D87               	subwf	NTC_Write@data& (0+255),w,b
  4405  001BBE  0E42               	movlw	66
  4406  001BC0  5988               	subwfb	(NTC_Write@data+1)& (0+255),w,b
  4407  001BC2  0E0F               	movlw	15
  4408  001BC4  5989               	subwfb	(NTC_Write@data+2)& (0+255),w,b
  4409  001BC6  A0D8               	btfss	status,0,c
  4410  001BC8  EFE8  F00D         	goto	u3301
  4411  001BCC  EFEA  F00D         	goto	u3300
  4412  001BD0                     u3301:
  4413  001BD0  EF04  F00E         	goto	l146
  4414  001BD4                     u3300:
  4415  001BD4                     
  4416                           ; BSR set to: 0
  4417                           ;main.c: 188:         data %= 1000000;
  4418  001BD4  C087  F06D         	movff	NTC_Write@data,___llmod@dividend
  4419  001BD8  C088  F06E         	movff	NTC_Write@data+1,___llmod@dividend+1
  4420  001BDC  C089  F06F         	movff	NTC_Write@data+2,___llmod@dividend+2
  4421  001BE0  C08A  F070         	movff	NTC_Write@data+3,___llmod@dividend+3
  4422  001BE4  0E40               	movlw	64
  4423  001BE6  6F71               	movwf	___llmod@divisor& (0+255),b
  4424  001BE8  0E42               	movlw	66
  4425  001BEA  6F72               	movwf	(___llmod@divisor+1)& (0+255),b
  4426  001BEC  0E0F               	movlw	15
  4427  001BEE  6F73               	movwf	(___llmod@divisor+2)& (0+255),b
  4428  001BF0  0E00               	movlw	0
  4429  001BF2  6F74               	movwf	(___llmod@divisor+3)& (0+255),b
  4430  001BF4  EC88  F018         	call	___llmod	;wreg free
  4431  001BF8  C06D  F087         	movff	?___llmod,NTC_Write@data
  4432  001BFC  C06E  F088         	movff	?___llmod+1,NTC_Write@data+1
  4433  001C00  C06F  F089         	movff	?___llmod+2,NTC_Write@data+2
  4434  001C04  C070  F08A         	movff	?___llmod+3,NTC_Write@data+3
  4435  001C08                     l146:
  4436                           
  4437                           ;main.c: 191:     buff[5] = (data / 1) % 10;
  4438  001C08  C087  F06D         	movff	NTC_Write@data,___llmod@dividend
  4439  001C0C  C088  F06E         	movff	NTC_Write@data+1,___llmod@dividend+1
  4440  001C10  C089  F06F         	movff	NTC_Write@data+2,___llmod@dividend+2
  4441  001C14  C08A  F070         	movff	NTC_Write@data+3,___llmod@dividend+3
  4442  001C18  0E0A               	movlw	10
  4443  001C1A  0100               	movlb	0	; () banked
  4444  001C1C  6F71               	movwf	___llmod@divisor& (0+255),b
  4445  001C1E  0E00               	movlw	0
  4446  001C20  6F72               	movwf	(___llmod@divisor+1)& (0+255),b
  4447  001C22  0E00               	movlw	0
  4448  001C24  6F73               	movwf	(___llmod@divisor+2)& (0+255),b
  4449  001C26  0E00               	movlw	0
  4450  001C28  6F74               	movwf	(___llmod@divisor+3)& (0+255),b
  4451  001C2A  EC88  F018         	call	___llmod	;wreg free
  4452  001C2E  0100               	movlb	0	; () banked
  4453  001C30  516D               	movf	?___llmod& (0+255),w,b
  4454  001C32  6F94               	movwf	(NTC_Write@buff+5)& (0+255),b
  4455                           
  4456                           ;main.c: 192:     buff[4] = (data / 10) % 10;
  4457  001C34  0E0A               	movlw	10
  4458  001C36  6F64               	movwf	___lldiv@divisor& (0+255),b
  4459  001C38  0E00               	movlw	0
  4460  001C3A  6F65               	movwf	(___lldiv@divisor+1)& (0+255),b
  4461  001C3C  0E00               	movlw	0
  4462  001C3E  6F66               	movwf	(___lldiv@divisor+2)& (0+255),b
  4463  001C40  0E00               	movlw	0
  4464  001C42  6F67               	movwf	(___lldiv@divisor+3)& (0+255),b
  4465  001C44  C087  F060         	movff	NTC_Write@data,___lldiv@dividend
  4466  001C48  C088  F061         	movff	NTC_Write@data+1,___lldiv@dividend+1
  4467  001C4C  C089  F062         	movff	NTC_Write@data+2,___lldiv@dividend+2
  4468  001C50  C08A  F063         	movff	NTC_Write@data+3,___lldiv@dividend+3
  4469  001C54  ECE3  F017         	call	___lldiv	;wreg free
  4470  001C58  C060  F06D         	movff	?___lldiv,___llmod@dividend
  4471  001C5C  C061  F06E         	movff	?___lldiv+1,___llmod@dividend+1
  4472  001C60  C062  F06F         	movff	?___lldiv+2,___llmod@dividend+2
  4473  001C64  C063  F070         	movff	?___lldiv+3,___llmod@dividend+3
  4474  001C68  0E0A               	movlw	10
  4475  001C6A  0100               	movlb	0	; () banked
  4476  001C6C  6F71               	movwf	___llmod@divisor& (0+255),b
  4477  001C6E  0E00               	movlw	0
  4478  001C70  6F72               	movwf	(___llmod@divisor+1)& (0+255),b
  4479  001C72  0E00               	movlw	0
  4480  001C74  6F73               	movwf	(___llmod@divisor+2)& (0+255),b
  4481  001C76  0E00               	movlw	0
  4482  001C78  6F74               	movwf	(___llmod@divisor+3)& (0+255),b
  4483  001C7A  EC88  F018         	call	___llmod	;wreg free
  4484  001C7E  0100               	movlb	0	; () banked
  4485  001C80  516D               	movf	?___llmod& (0+255),w,b
  4486  001C82  6F93               	movwf	(NTC_Write@buff+4)& (0+255),b
  4487                           
  4488                           ;main.c: 193:     buff[3] = (data / 100) % 10;
  4489  001C84  0E64               	movlw	100
  4490  001C86  6F64               	movwf	___lldiv@divisor& (0+255),b
  4491  001C88  0E00               	movlw	0
  4492  001C8A  6F65               	movwf	(___lldiv@divisor+1)& (0+255),b
  4493  001C8C  0E00               	movlw	0
  4494  001C8E  6F66               	movwf	(___lldiv@divisor+2)& (0+255),b
  4495  001C90  0E00               	movlw	0
  4496  001C92  6F67               	movwf	(___lldiv@divisor+3)& (0+255),b
  4497  001C94  C087  F060         	movff	NTC_Write@data,___lldiv@dividend
  4498  001C98  C088  F061         	movff	NTC_Write@data+1,___lldiv@dividend+1
  4499  001C9C  C089  F062         	movff	NTC_Write@data+2,___lldiv@dividend+2
  4500  001CA0  C08A  F063         	movff	NTC_Write@data+3,___lldiv@dividend+3
  4501  001CA4  ECE3  F017         	call	___lldiv	;wreg free
  4502  001CA8  C060  F06D         	movff	?___lldiv,___llmod@dividend
  4503  001CAC  C061  F06E         	movff	?___lldiv+1,___llmod@dividend+1
  4504  001CB0  C062  F06F         	movff	?___lldiv+2,___llmod@dividend+2
  4505  001CB4  C063  F070         	movff	?___lldiv+3,___llmod@dividend+3
  4506  001CB8  0E0A               	movlw	10
  4507  001CBA  0100               	movlb	0	; () banked
  4508  001CBC  6F71               	movwf	___llmod@divisor& (0+255),b
  4509  001CBE  0E00               	movlw	0
  4510  001CC0  6F72               	movwf	(___llmod@divisor+1)& (0+255),b
  4511  001CC2  0E00               	movlw	0
  4512  001CC4  6F73               	movwf	(___llmod@divisor+2)& (0+255),b
  4513  001CC6  0E00               	movlw	0
  4514  001CC8  6F74               	movwf	(___llmod@divisor+3)& (0+255),b
  4515  001CCA  EC88  F018         	call	___llmod	;wreg free
  4516  001CCE  0100               	movlb	0	; () banked
  4517  001CD0  516D               	movf	?___llmod& (0+255),w,b
  4518  001CD2  6F92               	movwf	(NTC_Write@buff+3)& (0+255),b
  4519                           
  4520                           ;main.c: 194:     buff[2] = (data / 1000) % 10;
  4521  001CD4  0EE8               	movlw	232
  4522  001CD6  6F64               	movwf	___lldiv@divisor& (0+255),b
  4523  001CD8  0E03               	movlw	3
  4524  001CDA  6F65               	movwf	(___lldiv@divisor+1)& (0+255),b
  4525  001CDC  0E00               	movlw	0
  4526  001CDE  6F66               	movwf	(___lldiv@divisor+2)& (0+255),b
  4527  001CE0  0E00               	movlw	0
  4528  001CE2  6F67               	movwf	(___lldiv@divisor+3)& (0+255),b
  4529  001CE4  C087  F060         	movff	NTC_Write@data,___lldiv@dividend
  4530  001CE8  C088  F061         	movff	NTC_Write@data+1,___lldiv@dividend+1
  4531  001CEC  C089  F062         	movff	NTC_Write@data+2,___lldiv@dividend+2
  4532  001CF0  C08A  F063         	movff	NTC_Write@data+3,___lldiv@dividend+3
  4533  001CF4  ECE3  F017         	call	___lldiv	;wreg free
  4534  001CF8  C060  F06D         	movff	?___lldiv,___llmod@dividend
  4535  001CFC  C061  F06E         	movff	?___lldiv+1,___llmod@dividend+1
  4536  001D00  C062  F06F         	movff	?___lldiv+2,___llmod@dividend+2
  4537  001D04  C063  F070         	movff	?___lldiv+3,___llmod@dividend+3
  4538  001D08  0E0A               	movlw	10
  4539  001D0A  0100               	movlb	0	; () banked
  4540  001D0C  6F71               	movwf	___llmod@divisor& (0+255),b
  4541  001D0E  0E00               	movlw	0
  4542  001D10  6F72               	movwf	(___llmod@divisor+1)& (0+255),b
  4543  001D12  0E00               	movlw	0
  4544  001D14  6F73               	movwf	(___llmod@divisor+2)& (0+255),b
  4545  001D16  0E00               	movlw	0
  4546  001D18  6F74               	movwf	(___llmod@divisor+3)& (0+255),b
  4547  001D1A  EC88  F018         	call	___llmod	;wreg free
  4548  001D1E  0100               	movlb	0	; () banked
  4549  001D20  516D               	movf	?___llmod& (0+255),w,b
  4550  001D22  6F91               	movwf	(NTC_Write@buff+2)& (0+255),b
  4551                           
  4552                           ;main.c: 195:     buff[1] = (data / 10000) % 10;
  4553  001D24  0E10               	movlw	16
  4554  001D26  6F64               	movwf	___lldiv@divisor& (0+255),b
  4555  001D28  0E27               	movlw	39
  4556  001D2A  6F65               	movwf	(___lldiv@divisor+1)& (0+255),b
  4557  001D2C  0E00               	movlw	0
  4558  001D2E  6F66               	movwf	(___lldiv@divisor+2)& (0+255),b
  4559  001D30  0E00               	movlw	0
  4560  001D32  6F67               	movwf	(___lldiv@divisor+3)& (0+255),b
  4561  001D34  C087  F060         	movff	NTC_Write@data,___lldiv@dividend
  4562  001D38  C088  F061         	movff	NTC_Write@data+1,___lldiv@dividend+1
  4563  001D3C  C089  F062         	movff	NTC_Write@data+2,___lldiv@dividend+2
  4564  001D40  C08A  F063         	movff	NTC_Write@data+3,___lldiv@dividend+3
  4565  001D44  ECE3  F017         	call	___lldiv	;wreg free
  4566  001D48  C060  F06D         	movff	?___lldiv,___llmod@dividend
  4567  001D4C  C061  F06E         	movff	?___lldiv+1,___llmod@dividend+1
  4568  001D50  C062  F06F         	movff	?___lldiv+2,___llmod@dividend+2
  4569  001D54  C063  F070         	movff	?___lldiv+3,___llmod@dividend+3
  4570  001D58  0E0A               	movlw	10
  4571  001D5A  0100               	movlb	0	; () banked
  4572  001D5C  6F71               	movwf	___llmod@divisor& (0+255),b
  4573  001D5E  0E00               	movlw	0
  4574  001D60  6F72               	movwf	(___llmod@divisor+1)& (0+255),b
  4575  001D62  0E00               	movlw	0
  4576  001D64  6F73               	movwf	(___llmod@divisor+2)& (0+255),b
  4577  001D66  0E00               	movlw	0
  4578  001D68  6F74               	movwf	(___llmod@divisor+3)& (0+255),b
  4579  001D6A  EC88  F018         	call	___llmod	;wreg free
  4580  001D6E  0100               	movlb	0	; () banked
  4581  001D70  516D               	movf	?___llmod& (0+255),w,b
  4582  001D72  6F90               	movwf	(NTC_Write@buff+1)& (0+255),b
  4583                           
  4584                           ;main.c: 196:     buff[0] = (data / 100000) % 10;
  4585  001D74  0EA0               	movlw	160
  4586  001D76  6F64               	movwf	___lldiv@divisor& (0+255),b
  4587  001D78  0E86               	movlw	134
  4588  001D7A  6F65               	movwf	(___lldiv@divisor+1)& (0+255),b
  4589  001D7C  0E01               	movlw	1
  4590  001D7E  6F66               	movwf	(___lldiv@divisor+2)& (0+255),b
  4591  001D80  0E00               	movlw	0
  4592  001D82  6F67               	movwf	(___lldiv@divisor+3)& (0+255),b
  4593  001D84  C087  F060         	movff	NTC_Write@data,___lldiv@dividend
  4594  001D88  C088  F061         	movff	NTC_Write@data+1,___lldiv@dividend+1
  4595  001D8C  C089  F062         	movff	NTC_Write@data+2,___lldiv@dividend+2
  4596  001D90  C08A  F063         	movff	NTC_Write@data+3,___lldiv@dividend+3
  4597  001D94  ECE3  F017         	call	___lldiv	;wreg free
  4598  001D98  C060  F06D         	movff	?___lldiv,___llmod@dividend
  4599  001D9C  C061  F06E         	movff	?___lldiv+1,___llmod@dividend+1
  4600  001DA0  C062  F06F         	movff	?___lldiv+2,___llmod@dividend+2
  4601  001DA4  C063  F070         	movff	?___lldiv+3,___llmod@dividend+3
  4602  001DA8  0E0A               	movlw	10
  4603  001DAA  0100               	movlb	0	; () banked
  4604  001DAC  6F71               	movwf	___llmod@divisor& (0+255),b
  4605  001DAE  0E00               	movlw	0
  4606  001DB0  6F72               	movwf	(___llmod@divisor+1)& (0+255),b
  4607  001DB2  0E00               	movlw	0
  4608  001DB4  6F73               	movwf	(___llmod@divisor+2)& (0+255),b
  4609  001DB6  0E00               	movlw	0
  4610  001DB8  6F74               	movwf	(___llmod@divisor+3)& (0+255),b
  4611  001DBA  EC88  F018         	call	___llmod	;wreg free
  4612  001DBE  0100               	movlb	0	; () banked
  4613  001DC0  516D               	movf	?___llmod& (0+255),w,b
  4614  001DC2  6F8F               	movwf	NTC_Write@buff& (0+255),b
  4615  001DC4                     
  4616                           ; BSR set to: 0
  4617                           ;main.c: 198:     temp |= ((uint24_t)buff[5] << 0);
  4618  001DC4  5194               	movf	(NTC_Write@buff+5)& (0+255),w,b
  4619  001DC6  6F8B               	movwf	??_NTC_Write& (0+255),b
  4620  001DC8  6B8C               	clrf	(??_NTC_Write+1)& (0+255),b
  4621  001DCA  6B8D               	clrf	(??_NTC_Write+2)& (0+255),b
  4622  001DCC  518B               	movf	??_NTC_Write& (0+255),w,b
  4623  001DCE  1395               	iorwf	NTC_Write@temp& (0+255),f,b
  4624  001DD0  518C               	movf	(??_NTC_Write+1)& (0+255),w,b
  4625  001DD2  1396               	iorwf	(NTC_Write@temp+1)& (0+255),f,b
  4626  001DD4  518D               	movf	(??_NTC_Write+2)& (0+255),w,b
  4627  001DD6  1397               	iorwf	(NTC_Write@temp+2)& (0+255),f,b
  4628  001DD8                     
  4629                           ; BSR set to: 0
  4630                           ;main.c: 199:     temp |= ((uint24_t)buff[4] << 4);
  4631  001DD8  0E04               	movlw	4
  4632  001DDA  6F8B               	movwf	??_NTC_Write& (0+255),b
  4633  001DDC  5193               	movf	(NTC_Write@buff+4)& (0+255),w,b
  4634  001DDE  6F8C               	movwf	(??_NTC_Write+1)& (0+255),b
  4635  001DE0  6B8D               	clrf	(??_NTC_Write+2)& (0+255),b
  4636  001DE2  6B8E               	clrf	(??_NTC_Write+3)& (0+255),b
  4637  001DE4  298B               	incf	??_NTC_Write& (0+255),w,b
  4638  001DE6  EFF9  F00E         	goto	u3310
  4639  001DEA                     u3315:
  4640  001DEA  90D8               	bcf	status,0,c
  4641  001DEC  378C               	rlcf	(??_NTC_Write+1)& (0+255),f,b
  4642  001DEE  378D               	rlcf	(??_NTC_Write+2)& (0+255),f,b
  4643  001DF0  378E               	rlcf	(??_NTC_Write+3)& (0+255),f,b
  4644  001DF2                     u3310:
  4645  001DF2  2EE8               	decfsz	wreg,f,c
  4646  001DF4  EFF5  F00E         	goto	u3315
  4647  001DF8  0100               	movlb	0	; () banked
  4648  001DFA  518C               	movf	(??_NTC_Write+1)& (0+255),w,b
  4649  001DFC  1395               	iorwf	NTC_Write@temp& (0+255),f,b
  4650  001DFE  518D               	movf	(??_NTC_Write+2)& (0+255),w,b
  4651  001E00  1396               	iorwf	(NTC_Write@temp+1)& (0+255),f,b
  4652  001E02  518E               	movf	(??_NTC_Write+3)& (0+255),w,b
  4653  001E04  1397               	iorwf	(NTC_Write@temp+2)& (0+255),f,b
  4654  001E06                     
  4655                           ; BSR set to: 0
  4656                           ;main.c: 200:     temp |= ((uint24_t)buff[3] << 8);
  4657  001E06  5192               	movf	(NTC_Write@buff+3)& (0+255),w,b
  4658  001E08  6F8B               	movwf	??_NTC_Write& (0+255),b
  4659  001E0A  6B8C               	clrf	(??_NTC_Write+1)& (0+255),b
  4660  001E0C  6B8D               	clrf	(??_NTC_Write+2)& (0+255),b
  4661  001E0E  C08C  F08D         	movff	??_NTC_Write+1,??_NTC_Write+2
  4662  001E12  C08B  F08C         	movff	??_NTC_Write,??_NTC_Write+1
  4663  001E16  6B8B               	clrf	??_NTC_Write& (0+255),b
  4664  001E18  518B               	movf	??_NTC_Write& (0+255),w,b
  4665  001E1A  1395               	iorwf	NTC_Write@temp& (0+255),f,b
  4666  001E1C  518C               	movf	(??_NTC_Write+1)& (0+255),w,b
  4667  001E1E  1396               	iorwf	(NTC_Write@temp+1)& (0+255),f,b
  4668  001E20  518D               	movf	(??_NTC_Write+2)& (0+255),w,b
  4669  001E22  1397               	iorwf	(NTC_Write@temp+2)& (0+255),f,b
  4670  001E24                     
  4671                           ; BSR set to: 0
  4672                           ;main.c: 201:     temp |= ((uint24_t)buff[2] << 12);
  4673  001E24  0E0C               	movlw	12
  4674  001E26  6F8B               	movwf	??_NTC_Write& (0+255),b
  4675  001E28  5191               	movf	(NTC_Write@buff+2)& (0+255),w,b
  4676  001E2A  6F8C               	movwf	(??_NTC_Write+1)& (0+255),b
  4677  001E2C  6B8D               	clrf	(??_NTC_Write+2)& (0+255),b
  4678  001E2E  6B8E               	clrf	(??_NTC_Write+3)& (0+255),b
  4679  001E30  298B               	incf	??_NTC_Write& (0+255),w,b
  4680  001E32  EF1F  F00F         	goto	u3320
  4681  001E36                     u3325:
  4682  001E36  90D8               	bcf	status,0,c
  4683  001E38  378C               	rlcf	(??_NTC_Write+1)& (0+255),f,b
  4684  001E3A  378D               	rlcf	(??_NTC_Write+2)& (0+255),f,b
  4685  001E3C  378E               	rlcf	(??_NTC_Write+3)& (0+255),f,b
  4686  001E3E                     u3320:
  4687  001E3E  2EE8               	decfsz	wreg,f,c
  4688  001E40  EF1B  F00F         	goto	u3325
  4689  001E44  0100               	movlb	0	; () banked
  4690  001E46  518C               	movf	(??_NTC_Write+1)& (0+255),w,b
  4691  001E48  1395               	iorwf	NTC_Write@temp& (0+255),f,b
  4692  001E4A  518D               	movf	(??_NTC_Write+2)& (0+255),w,b
  4693  001E4C  1396               	iorwf	(NTC_Write@temp+1)& (0+255),f,b
  4694  001E4E  518E               	movf	(??_NTC_Write+3)& (0+255),w,b
  4695  001E50  1397               	iorwf	(NTC_Write@temp+2)& (0+255),f,b
  4696  001E52                     
  4697                           ; BSR set to: 0
  4698                           ;main.c: 202:     temp |= ((uint24_t)buff[1] << 16);
  4699  001E52  5190               	movf	(NTC_Write@buff+1)& (0+255),w,b
  4700  001E54  1397               	iorwf	(NTC_Write@temp+2)& (0+255),f,b
  4701  001E56                     
  4702                           ; BSR set to: 0
  4703                           ;main.c: 203:     temp |= ((uint24_t)buff[0] << 20);
  4704  001E56  0E14               	movlw	20
  4705  001E58  6F8B               	movwf	??_NTC_Write& (0+255),b
  4706  001E5A  518F               	movf	NTC_Write@buff& (0+255),w,b
  4707  001E5C  6F8C               	movwf	(??_NTC_Write+1)& (0+255),b
  4708  001E5E  6B8D               	clrf	(??_NTC_Write+2)& (0+255),b
  4709  001E60  6B8E               	clrf	(??_NTC_Write+3)& (0+255),b
  4710  001E62  298B               	incf	??_NTC_Write& (0+255),w,b
  4711  001E64  EF38  F00F         	goto	u3330
  4712  001E68                     u3335:
  4713  001E68  90D8               	bcf	status,0,c
  4714  001E6A  378C               	rlcf	(??_NTC_Write+1)& (0+255),f,b
  4715  001E6C  378D               	rlcf	(??_NTC_Write+2)& (0+255),f,b
  4716  001E6E  378E               	rlcf	(??_NTC_Write+3)& (0+255),f,b
  4717  001E70                     u3330:
  4718  001E70  2EE8               	decfsz	wreg,f,c
  4719  001E72  EF34  F00F         	goto	u3335
  4720  001E76  0100               	movlb	0	; () banked
  4721  001E78  518C               	movf	(??_NTC_Write+1)& (0+255),w,b
  4722  001E7A  1395               	iorwf	NTC_Write@temp& (0+255),f,b
  4723  001E7C  518D               	movf	(??_NTC_Write+2)& (0+255),w,b
  4724  001E7E  1396               	iorwf	(NTC_Write@temp+1)& (0+255),f,b
  4725  001E80  518E               	movf	(??_NTC_Write+3)& (0+255),w,b
  4726  001E82  1397               	iorwf	(NTC_Write@temp+2)& (0+255),f,b
  4727  001E84                     
  4728                           ; BSR set to: 0
  4729                           ;main.c: 205:     IC595_Write(temp);
  4730  001E84  C095  F060         	movff	NTC_Write@temp,IC595_Write@data
  4731  001E88  C096  F061         	movff	NTC_Write@temp+1,IC595_Write@data+1
  4732  001E8C  C097  F062         	movff	NTC_Write@temp+2,IC595_Write@data+2
  4733  001E90  EC84  F019         	call	_IC595_Write	;wreg free
  4734  001E94  0012               	return		;funcret
  4735  001E96                     __end_of_NTC_Write:
  4736                           	callstack 0
  4737                           
  4738 ;; *************** function _IC595_Write *****************
  4739 ;; Defined at:
  4740 ;;		line 339 in file "main.c"
  4741 ;; Parameters:    Size  Location     Type
  4742 ;;  data            3    0[BANK0 ] unsigned um
  4743 ;; Auto vars:     Size  Location     Type
  4744 ;;  i               2    7[BANK0 ] short 
  4745 ;; Return value:  Size  Location     Type
  4746 ;;                  1    wreg      void 
  4747 ;; Registers used:
  4748 ;;		wreg, status,2, status,0
  4749 ;; Tracked objects:
  4750 ;;		On entry : 0/0
  4751 ;;		On exit  : 0/0
  4752 ;;		Unchanged: 0/0
  4753 ;; Data sizes:     COMRAM   BANK0   BANK1   BANK2   BANK3   BANK4   BANK5   BANK6   BANK7   BANK8   BANK9  BANK10  BANK1
      +1  BANK12  BANK13  BANK14
  4754 ;;      Params:         0       3       0       0       0       0       0       0       0       0       0       0       
      +0       0       0       0
  4755 ;;      Locals:         0       2       0       0       0       0       0       0       0       0       0       0       
      +0       0       0       0
  4756 ;;      Temps:          0       4       0       0       0       0       0       0       0       0       0       0       
      +0       0       0       0
  4757 ;;      Totals:         0       9       0       0       0       0       0       0       0       0       0       0       
      +0       0       0       0
  4758 ;;Total ram usage:        9 bytes
  4759 ;; Hardware stack levels used: 1
  4760 ;; Hardware stack levels required when called: 4
  4761 ;; This function calls:
  4762 ;;		Nothing
  4763 ;; This function is called by:
  4764 ;;		_NTC_Write
  4765 ;; This function uses a non-reentrant model
  4766 ;;
  4767                           
  4768                           	psect	text12
  4769  003308                     __ptext12:
  4770                           	callstack 0
  4771  003308                     _IC595_Write:
  4772                           	callstack 25
  4773  003308                     
  4774                           ;main.c: 339: void IC595_Write(uint24_t data);main.c: 340: {;main.c: 341:     int16_t i;
      +                          ;main.c: 343:     for (i = 0; i < 24; i++) {
  4775  003308  0E00               	movlw	0
  4776  00330A  0100               	movlb	0	; () banked
  4777  00330C  6F68               	movwf	(IC595_Write@i+1)& (0+255),b
  4778  00330E  0E00               	movlw	0
  4779  003310  6F67               	movwf	IC595_Write@i& (0+255),b
  4780  003312                     l2794:
  4781                           
  4782                           ; BSR set to: 0
  4783                           ;main.c: 344:         LATC3 = (((data >> i) & 0x01) != 0);
  4784  003312  C060  F063         	movff	IC595_Write@data,??_IC595_Write
  4785  003316  C061  F064         	movff	IC595_Write@data+1,??_IC595_Write+1
  4786  00331A  C062  F065         	movff	IC595_Write@data+2,??_IC595_Write+2
  4787  00331E  2967               	incf	IC595_Write@i& (0+255),w,b
  4788  003320  6F66               	movwf	(??_IC595_Write+3)& (0+255),b
  4789  003322  EF97  F019         	goto	u2930
  4790  003326                     u2935:
  4791  003326  90D8               	bcf	status,0,c
  4792  003328  3365               	rrcf	(??_IC595_Write+2)& (0+255),f,b
  4793  00332A  3364               	rrcf	(??_IC595_Write+1)& (0+255),f,b
  4794  00332C  3363               	rrcf	??_IC595_Write& (0+255),f,b
  4795  00332E                     u2930:
  4796  00332E  2F66               	decfsz	(??_IC595_Write+3)& (0+255),f,b
  4797  003330  EF93  F019         	goto	u2935
  4798  003334  0100               	movlb	0	; () banked
  4799  003336  B163               	btfsc	??_IC595_Write& (0+255),0,b
  4800  003338  EFA0  F019         	goto	u2941
  4801  00333C  EFA3  F019         	goto	u2940
  4802  003340                     u2941:
  4803  003340  8684               	bsf	3972,3,c	;volatile
  4804  003342  EFA4  F019         	goto	u2955
  4805  003346                     u2940:
  4806  003346  9684               	bcf	3972,3,c	;volatile
  4807  003348                     u2955:
  4808  003348                     
  4809                           ;main.c: 345:         LATC2 = 0;
  4810  003348  9484               	bcf	3972,2,c	;volatile
  4811  00334A                     
  4812                           ;main.c: 346:         LATC2 = 1;
  4813  00334A  8484               	bsf	3972,2,c	;volatile
  4814  00334C                     
  4815                           ;main.c: 347:     }
  4816  00334C  0100               	movlb	0	; () banked
  4817  00334E  4B67               	infsnz	IC595_Write@i& (0+255),f,b
  4818  003350  2B68               	incf	(IC595_Write@i+1)& (0+255),f,b
  4819  003352                     
  4820                           ; BSR set to: 0
  4821  003352  BF68               	btfsc	(IC595_Write@i+1)& (0+255),7,b
  4822  003354  EFB5  F019         	goto	u2961
  4823  003358  5168               	movf	(IC595_Write@i+1)& (0+255),w,b
  4824  00335A  E109               	bnz	u2960
  4825  00335C  0E18               	movlw	24
  4826  00335E  5D67               	subwf	IC595_Write@i& (0+255),w,b
  4827  003360  A0D8               	btfss	status,0,c
  4828  003362  EFB5  F019         	goto	u2961
  4829  003366  EFB7  F019         	goto	u2960
  4830  00336A                     u2961:
  4831  00336A  EF89  F019         	goto	l2794
  4832  00336E                     u2960:
  4833  00336E                     
  4834                           ; BSR set to: 0
  4835                           ;main.c: 349:     LATC1 = 0;
  4836  00336E  9284               	bcf	3972,1,c	;volatile
  4837                           
  4838                           ;main.c: 350:     LATC1 = 1;
  4839  003370  8284               	bsf	3972,1,c	;volatile
  4840  003372                     
  4841                           ; BSR set to: 0
  4842  003372  0012               	return		;funcret
  4843  003374                     __end_of_IC595_Write:
  4844                           	callstack 0
  4845                           
  4846 ;; *************** function _Duty_Control *****************
  4847 ;; Defined at:
  4848 ;;		line 209 in file "main.c"
  4849 ;; Parameters:    Size  Location     Type
  4850 ;;		None
  4851 ;; Auto vars:     Size  Location     Type
  4852 ;;  ntc_limit       2    5[BANK0 ] const unsigned short 
  4853 ;;  led_limit       2    0        const unsigned short 
  4854 ;; Return value:  Size  Location     Type
  4855 ;;                  1    wreg      void 
  4856 ;; Registers used:
  4857 ;;		wreg, status,2, status,0, cstack
  4858 ;; Tracked objects:
  4859 ;;		On entry : 0/0
  4860 ;;		On exit  : 0/0
  4861 ;;		Unchanged: 0/0
  4862 ;; Data sizes:     COMRAM   BANK0   BANK1   BANK2   BANK3   BANK4   BANK5   BANK6   BANK7   BANK8   BANK9  BANK10  BANK1
      +1  BANK12  BANK13  BANK14
  4863 ;;      Params:         0       0       0       0       0       0       0       0       0       0       0       0       
      +0       0       0       0
  4864 ;;      Locals:         0       2       0       0       0       0       0       0       0       0       0       0       
      +0       0       0       0
  4865 ;;      Temps:          0       0       0       0       0       0       0       0       0       0       0       0       
      +0       0       0       0
  4866 ;;      Totals:         0       2       0       0       0       0       0       0       0       0       0       0       
      +0       0       0       0
  4867 ;;Total ram usage:        2 bytes
  4868 ;; Hardware stack levels used: 1
  4869 ;; Hardware stack levels required when called: 5
  4870 ;; This function calls:
  4871 ;;		_Set_PWM_Duty
  4872 ;; This function is called by:
  4873 ;;		_main
  4874 ;; This function uses a non-reentrant model
  4875 ;;
  4876                           
  4877                           	psect	text13
  4878  002F1C                     __ptext13:
  4879                           	callstack 0
  4880  002F1C                     _Duty_Control:
  4881                           	callstack 25
  4882  002F1C                     
  4883                           ;main.c: 215:     const uint16_t ntc_limit = 0x03ff;
  4884  002F1C  0E03               	movlw	3
  4885  002F1E  0100               	movlb	0	; () banked
  4886  002F20  6F66               	movwf	(Duty_Control@ntc_limit+1)& (0+255),b
  4887  002F22  6965               	setf	Duty_Control@ntc_limit& (0+255),b
  4888  002F24                     
  4889                           ; BSR set to: 0
  4890                           ;main.c: 217:     if (RC6) {
  4891  002F24  AC8E               	btfss	3982,6,c	;volatile
  4892  002F26  EF97  F017         	goto	u3211
  4893  002F2A  EF99  F017         	goto	u3210
  4894  002F2E                     u3211:
  4895  002F2E  EFB2  F017         	goto	l2988
  4896  002F32                     u3210:
  4897  002F32                     
  4898                           ; BSR set to: 0
  4899                           ;main.c: 218:         LATC5 = 1;
  4900  002F32  8A84               	bsf	3972,5,c	;volatile
  4901  002F34                     
  4902                           ; BSR set to: 0
  4903                           ;main.c: 220:         if (led < led_limit) {
  4904  002F34  05C9               	decf	(Duty_Control@led+1)& (0+255),w,b
  4905  002F36  B0D8               	btfsc	status,0,c
  4906  002F38  EFA0  F017         	goto	u3221
  4907  002F3C  EFA2  F017         	goto	u3220
  4908  002F40                     u3221:
  4909  002F40  EFA4  F017         	goto	l2984
  4910  002F44                     u3220:
  4911  002F44                     
  4912                           ; BSR set to: 0
  4913                           ;main.c: 221:             led++;
  4914  002F44  4BC8               	infsnz	Duty_Control@led& (0+255),f,b
  4915  002F46  2BC9               	incf	(Duty_Control@led+1)& (0+255),f,b
  4916  002F48                     l2984:
  4917                           
  4918                           ; BSR set to: 0
  4919                           ;main.c: 223:         if (ntc < ntc_limit) {
  4920  002F48  29C6               	incf	Duty_Control@ntc& (0+255),w,b
  4921  002F4A  0E03               	movlw	3
  4922  002F4C  59C7               	subwfb	(Duty_Control@ntc+1)& (0+255),w,b
  4923  002F4E  B0D8               	btfsc	status,0,c
  4924  002F50  EFAC  F017         	goto	u3231
  4925  002F54  EFAE  F017         	goto	u3230
  4926  002F58                     u3231:
  4927  002F58  EFD4  F017         	goto	l3000
  4928  002F5C                     u3230:
  4929  002F5C                     
  4930                           ; BSR set to: 0
  4931                           ;main.c: 224:             ntc++;
  4932  002F5C  4BC6               	infsnz	Duty_Control@ntc& (0+255),f,b
  4933  002F5E  2BC7               	incf	(Duty_Control@ntc+1)& (0+255),f,b
  4934  002F60  EFD4  F017         	goto	l3000
  4935  002F64                     l2988:
  4936                           
  4937                           ; BSR set to: 0
  4938                           ;main.c: 228:         if (ntc > 0) {
  4939  002F64  51C6               	movf	Duty_Control@ntc& (0+255),w,b
  4940  002F66  11C7               	iorwf	(Duty_Control@ntc+1)& (0+255),w,b
  4941  002F68  B4D8               	btfsc	status,2,c
  4942  002F6A  EFB9  F017         	goto	u3241
  4943  002F6E  EFBB  F017         	goto	u3240
  4944  002F72                     u3241:
  4945  002F72  EFC8  F017         	goto	l2996
  4946  002F76                     u3240:
  4947  002F76                     
  4948                           ; BSR set to: 0
  4949                           ;main.c: 229:             ntc--;
  4950  002F76  07C6               	decf	Duty_Control@ntc& (0+255),f,b
  4951  002F78  A0D8               	btfss	status,0,c
  4952  002F7A  07C7               	decf	(Duty_Control@ntc+1)& (0+255),f,b
  4953  002F7C                     
  4954                           ; BSR set to: 0
  4955                           ;main.c: 230:             if (ntc == 0) {
  4956  002F7C  51C6               	movf	Duty_Control@ntc& (0+255),w,b
  4957  002F7E  11C7               	iorwf	(Duty_Control@ntc+1)& (0+255),w,b
  4958  002F80  A4D8               	btfss	status,2,c
  4959  002F82  EFC5  F017         	goto	u3251
  4960  002F86  EFC7  F017         	goto	u3250
  4961  002F8A                     u3251:
  4962  002F8A  EFC8  F017         	goto	l2996
  4963  002F8E                     u3250:
  4964  002F8E                     
  4965                           ; BSR set to: 0
  4966                           ;main.c: 231:                 LATC5 = 0;
  4967  002F8E  9A84               	bcf	3972,5,c	;volatile
  4968  002F90                     l2996:
  4969                           
  4970                           ; BSR set to: 0
  4971                           ;main.c: 234:         if (led > 0) {
  4972  002F90  51C8               	movf	Duty_Control@led& (0+255),w,b
  4973  002F92  11C9               	iorwf	(Duty_Control@led+1)& (0+255),w,b
  4974  002F94  B4D8               	btfsc	status,2,c
  4975  002F96  EFCF  F017         	goto	u3261
  4976  002F9A  EFD1  F017         	goto	u3260
  4977  002F9E                     u3261:
  4978  002F9E  EFD4  F017         	goto	l3000
  4979  002FA2                     u3260:
  4980  002FA2                     
  4981                           ; BSR set to: 0
  4982                           ;main.c: 235:             led--;
  4983  002FA2  07C8               	decf	Duty_Control@led& (0+255),f,b
  4984  002FA4  A0D8               	btfss	status,0,c
  4985  002FA6  07C9               	decf	(Duty_Control@led+1)& (0+255),f,b
  4986  002FA8                     l3000:
  4987                           
  4988                           ; BSR set to: 0
  4989                           ;main.c: 239:     Set_PWM_Duty(3, led);
  4990  002FA8  C0C8  F060         	movff	Duty_Control@led,Set_PWM_Duty@duty
  4991  002FAC  C0C9  F061         	movff	Duty_Control@led+1,Set_PWM_Duty@duty+1
  4992  002FB0  0E03               	movlw	3
  4993  002FB2  EC11  F019         	call	_Set_PWM_Duty
  4994  002FB6                     
  4995                           ;main.c: 240:     Set_PWM_Duty(4, ntc);
  4996  002FB6  C0C6  F060         	movff	Duty_Control@ntc,Set_PWM_Duty@duty
  4997  002FBA  C0C7  F061         	movff	Duty_Control@ntc+1,Set_PWM_Duty@duty+1
  4998  002FBE  0E04               	movlw	4
  4999  002FC0  EC11  F019         	call	_Set_PWM_Duty
  5000  002FC4  0012               	return		;funcret
  5001  002FC6                     __end_of_Duty_Control:
  5002                           	callstack 0
  5003                           
  5004 ;; *************** function _Set_PWM_Duty *****************
  5005 ;; Defined at:
  5006 ;;		line 354 in file "main.c"
  5007 ;; Parameters:    Size  Location     Type
  5008 ;;  ch              1    wreg     unsigned char 
  5009 ;;  duty            2    0[BANK0 ] short 
  5010 ;; Auto vars:     Size  Location     Type
  5011 ;;  ch              1    4[BANK0 ] unsigned char 
  5012 ;; Return value:  Size  Location     Type
  5013 ;;                  1    wreg      void 
  5014 ;; Registers used:
  5015 ;;		wreg, status,2, status,0
  5016 ;; Tracked objects:
  5017 ;;		On entry : 0/0
  5018 ;;		On exit  : 0/0
  5019 ;;		Unchanged: 0/0
  5020 ;; Data sizes:     COMRAM   BANK0   BANK1   BANK2   BANK3   BANK4   BANK5   BANK6   BANK7   BANK8   BANK9  BANK10  BANK1
      +1  BANK12  BANK13  BANK14
  5021 ;;      Params:         0       2       0       0       0       0       0       0       0       0       0       0       
      +0       0       0       0
  5022 ;;      Locals:         0       1       0       0       0       0       0       0       0       0       0       0       
      +0       0       0       0
  5023 ;;      Temps:          0       2       0       0       0       0       0       0       0       0       0       0       
      +0       0       0       0
  5024 ;;      Totals:         0       5       0       0       0       0       0       0       0       0       0       0       
      +0       0       0       0
  5025 ;;Total ram usage:        5 bytes
  5026 ;; Hardware stack levels used: 1
  5027 ;; Hardware stack levels required when called: 4
  5028 ;; This function calls:
  5029 ;;		Nothing
  5030 ;; This function is called by:
  5031 ;;		_init
  5032 ;;		_Duty_Control
  5033 ;; This function uses a non-reentrant model
  5034 ;;
  5035                           
  5036                           	psect	text14
  5037  003222                     __ptext14:
  5038                           	callstack 0
  5039  003222                     _Set_PWM_Duty:
  5040                           	callstack 25
  5041                           
  5042                           ;incstack = 0
  5043                           ;Set_PWM_Duty@ch stored from wreg
  5044  003222  0100               	movlb	0	; () banked
  5045  003224  6F64               	movwf	Set_PWM_Duty@ch& (0+255),b
  5046  003226                     
  5047                           ;main.c: 354: void Set_PWM_Duty(uint8_t ch, int16_t duty);main.c: 355: {;main.c: 356:   
      +                            switch (ch) {
  5048  003226  EF35  F019         	goto	l2776
  5049  00322A                     l2766:
  5050                           
  5051                           ; BSR set to: 0
  5052                           ;main.c: 358:             PWM3DCH = duty >> 2;
  5053  00322A  C060  F062         	movff	Set_PWM_Duty@duty,??_Set_PWM_Duty
  5054  00322E  C061  F063         	movff	Set_PWM_Duty@duty+1,??_Set_PWM_Duty+1
  5055  003232  3563               	rlcf	(??_Set_PWM_Duty+1)& (0+255),w,b
  5056  003234  3363               	rrcf	(??_Set_PWM_Duty+1)& (0+255),f,b
  5057  003236  3362               	rrcf	??_Set_PWM_Duty& (0+255),f,b
  5058  003238  3563               	rlcf	(??_Set_PWM_Duty+1)& (0+255),w,b
  5059  00323A  3363               	rrcf	(??_Set_PWM_Duty+1)& (0+255),f,b
  5060  00323C  3362               	rrcf	??_Set_PWM_Duty& (0+255),f,b
  5061  00323E  5162               	movf	??_Set_PWM_Duty& (0+255),w,b
  5062  003240  6EA3               	movwf	163,c	;volatile
  5063  003242                     
  5064                           ; BSR set to: 0
  5065                           ;main.c: 359:             PWM3DCL = duty;
  5066  003242  C060  FFA2         	movff	Set_PWM_Duty@duty,4002	;volatile
  5067                           
  5068                           ;main.c: 360:             break;
  5069  003246  EF4B  F019         	goto	l207
  5070  00324A                     l2770:
  5071                           
  5072                           ; BSR set to: 0
  5073                           ;main.c: 363:             PWM4DCH = duty >> 2;
  5074  00324A  C060  F062         	movff	Set_PWM_Duty@duty,??_Set_PWM_Duty
  5075  00324E  C061  F063         	movff	Set_PWM_Duty@duty+1,??_Set_PWM_Duty+1
  5076  003252  3563               	rlcf	(??_Set_PWM_Duty+1)& (0+255),w,b
  5077  003254  3363               	rrcf	(??_Set_PWM_Duty+1)& (0+255),f,b
  5078  003256  3362               	rrcf	??_Set_PWM_Duty& (0+255),f,b
  5079  003258  3563               	rlcf	(??_Set_PWM_Duty+1)& (0+255),w,b
  5080  00325A  3363               	rrcf	(??_Set_PWM_Duty+1)& (0+255),f,b
  5081  00325C  3362               	rrcf	??_Set_PWM_Duty& (0+255),f,b
  5082  00325E  5162               	movf	??_Set_PWM_Duty& (0+255),w,b
  5083  003260  6EA0               	movwf	160,c	;volatile
  5084  003262                     
  5085                           ; BSR set to: 0
  5086                           ;main.c: 364:             PWM4DCL = duty;
  5087  003262  C060  FF9F         	movff	Set_PWM_Duty@duty,3999	;volatile
  5088                           
  5089                           ;main.c: 365:             break;
  5090  003266  EF4B  F019         	goto	l207
  5091  00326A                     l2776:
  5092  00326A  0100               	movlb	0	; () banked
  5093  00326C  5164               	movf	Set_PWM_Duty@ch& (0+255),w,b
  5094  00326E  6F62               	movwf	??_Set_PWM_Duty& (0+255),b
  5095  003270  6B63               	clrf	(??_Set_PWM_Duty+1)& (0+255),b
  5096                           
  5097                           ; Switch on 2 bytes has been partitioned into a top level switch of size 1, and 1 sub-sw
      +                          itches
  5098                           ; Switch size 1, requested type "simple"
  5099                           ; Number of cases is 1, Range of values is 0 to 0
  5100                           ; switch strategies available:
  5101                           ; Name         Instructions Cycles
  5102                           ; simple_byte            4     3 (average)
  5103                           ;	Chosen strategy is simple_byte
  5104  003272  5163               	movf	(??_Set_PWM_Duty+1)& (0+255),w,b
  5105  003274  0A00               	xorlw	0	; case 0
  5106  003276  B4D8               	btfsc	status,2,c
  5107  003278  EF40  F019         	goto	l3238
  5108  00327C  EF4B  F019         	goto	l207
  5109  003280                     l3238:
  5110                           
  5111                           ; BSR set to: 0
  5112                           ; Switch size 1, requested type "simple"
  5113                           ; Number of cases is 2, Range of values is 3 to 4
  5114                           ; switch strategies available:
  5115                           ; Name         Instructions Cycles
  5116                           ; simple_byte            7     4 (average)
  5117                           ;	Chosen strategy is simple_byte
  5118  003280  5162               	movf	??_Set_PWM_Duty& (0+255),w,b
  5119  003282  0A03               	xorlw	3	; case 3
  5120  003284  B4D8               	btfsc	status,2,c
  5121  003286  EF15  F019         	goto	l2766
  5122  00328A  0A07               	xorlw	7	; case 4
  5123  00328C  B4D8               	btfsc	status,2,c
  5124  00328E  EF25  F019         	goto	l2770
  5125  003292  EF4B  F019         	goto	l207
  5126  003296                     l207:
  5127                           
  5128                           ; BSR set to: 0
  5129  003296  0012               	return		;funcret
  5130  003298                     __end_of_Set_PWM_Duty:
  5131                           	callstack 0
  5132                           
  5133 ;; *************** function _DGM_Effect *****************
  5134 ;; Defined at:
  5135 ;;		line 321 in file "main.c"
  5136 ;; Parameters:    Size  Location     Type
  5137 ;;  time            4   22[BANK0 ] unsigned long 
  5138 ;;  val             1   26[BANK0 ] unsigned char 
  5139 ;; Auto vars:     Size  Location     Type
  5140 ;;  data            4   35[BANK0 ] unsigned long 
  5141 ;; Return value:  Size  Location     Type
  5142 ;;                  4   22[BANK0 ] unsigned long 
  5143 ;; Registers used:
  5144 ;;		wreg, status,2, status,0, tblptrl, tblptrh, tblptru, prodl, prodh, cstack
  5145 ;; Tracked objects:
  5146 ;;		On entry : 0/0
  5147 ;;		On exit  : 0/0
  5148 ;;		Unchanged: 0/0
  5149 ;; Data sizes:     COMRAM   BANK0   BANK1   BANK2   BANK3   BANK4   BANK5   BANK6   BANK7   BANK8   BANK9  BANK10  BANK1
      +1  BANK12  BANK13  BANK14
  5150 ;;      Params:         0       5       0       0       0       0       0       0       0       0       0       0       
      +0       0       0       0
  5151 ;;      Locals:         0       8       0       0       0       0       0       0       0       0       0       0       
      +0       0       0       0
  5152 ;;      Temps:          0       4       0       0       0       0       0       0       0       0       0       0       
      +0       0       0       0
  5153 ;;      Totals:         0      17       0       0       0       0       0       0       0       0       0       0       
      +0       0       0       0
  5154 ;;Total ram usage:       17 bytes
  5155 ;; Hardware stack levels used: 1
  5156 ;; Hardware stack levels required when called: 6
  5157 ;; This function calls:
  5158 ;;		___lldiv
  5159 ;;		___llmod
  5160 ;;		___lmul
  5161 ;;		_rand
  5162 ;; This function is called by:
  5163 ;;		_main
  5164 ;; This function uses a non-reentrant model
  5165 ;;
  5166                           
  5167                           	psect	text15
  5168  00278C                     __ptext15:
  5169                           	callstack 0
  5170  00278C                     _DGM_Effect:
  5171                           	callstack 24
  5172  00278C                     
  5173                           ;main.c: 321: uint32_t DGM_Effect(uint32_t time, uint8_t val);main.c: 322: {;main.c: 323
      +                          :     uint32_t data;;main.c: 324:     static const uint32_t factor[7] = { 1, 10, 100, 10
      +                          00, 10000, 100000, 1000000 };;main.c: 326:     if (val >= 6) {
  5174  00278C  0E05               	movlw	5
  5175  00278E  0100               	movlb	0	; () banked
  5176  002790  657A               	cpfsgt	DGM_Effect@val& (0+255),b
  5177  002792  EFCD  F013         	goto	u3291
  5178  002796  EFCF  F013         	goto	u3290
  5179  00279A                     u3291:
  5180  00279A  EFD1  F013         	goto	l3026
  5181  00279E                     u3290:
  5182  00279E                     
  5183                           ; BSR set to: 0
  5184                           ;main.c: 327:         val = 6;
  5185  00279E  0E06               	movlw	6
  5186  0027A0  6F7A               	movwf	DGM_Effect@val& (0+255),b
  5187  0027A2                     l3026:
  5188                           
  5189                           ; BSR set to: 0
  5190                           ;main.c: 330:     time /= factor[val];
  5191  0027A2  C076  F060         	movff	DGM_Effect@time,___lldiv@dividend
  5192  0027A6  C077  F061         	movff	DGM_Effect@time+1,___lldiv@dividend+1
  5193  0027AA  C078  F062         	movff	DGM_Effect@time+2,___lldiv@dividend+2
  5194  0027AE  C079  F063         	movff	DGM_Effect@time+3,___lldiv@dividend+3
  5195  0027B2  517A               	movf	DGM_Effect@val& (0+255),w,b
  5196  0027B4  0D04               	mullw	4
  5197  0027B6  0E01               	movlw	low DGM_Effect@factor
  5198  0027B8  24F3               	addwf	243,w,c
  5199  0027BA  6EF6               	movwf	tblptrl,c
  5200  0027BC  0E0F               	movlw	high DGM_Effect@factor
  5201  0027BE  20F4               	addwfc	244,w,c
  5202  0027C0  6EF7               	movwf	tblptrh,c
  5203  0027C2                     	if	1	;There are 3 active tblptr bytes
  5204  0027C2  6AF8               	clrf	tblptru,c
  5205  0027C4  0E00               	movlw	low (__mediumconst shr (0+16))
  5206  0027C6  22F8               	addwfc	tblptru,f,c
  5207  0027C8                     	endif
  5208  0027C8  0009               	tblrd		*+
  5209  0027CA  CFF5 F064          	movff	tablat,___lldiv@divisor
  5210  0027CE  0009               	tblrd		*+
  5211  0027D0  CFF5 F065          	movff	tablat,___lldiv@divisor+1
  5212  0027D4  0009               	tblrd		*+
  5213  0027D6  CFF5 F066          	movff	tablat,___lldiv@divisor+2
  5214  0027DA  000A               	tblrd		*-
  5215  0027DC  CFF5 F067          	movff	tablat,___lldiv@divisor+3
  5216  0027E0  ECE3  F017         	call	___lldiv	;wreg free
  5217  0027E4  C060  F076         	movff	?___lldiv,DGM_Effect@time
  5218  0027E8  C061  F077         	movff	?___lldiv+1,DGM_Effect@time+1
  5219  0027EC  C062  F078         	movff	?___lldiv+2,DGM_Effect@time+2
  5220  0027F0  C063  F079         	movff	?___lldiv+3,DGM_Effect@time+3
  5221  0027F4                     
  5222                           ;main.c: 331:     data = (uint32_t)rand() * 1000 + rand();
  5223  0027F4  EC4C  F019         	call	_rand	;wreg free
  5224  0027F8  0100               	movlb	0	; () banked
  5225  0027FA  C06C  F07F         	movff	?_rand,_DGM_Effect$1004
  5226  0027FE  C06D  F080         	movff	?_rand+1,_DGM_Effect$1004+1
  5227  002802  0E00               	movlw	0
  5228  002804  BF80               	btfsc	(_DGM_Effect$1004+1)& (0+255),7,b
  5229  002806  0EFF               	movlw	-1
  5230  002808  6F81               	movwf	(_DGM_Effect$1004+2)& (0+255),b
  5231  00280A  6F82               	movwf	(_DGM_Effect$1004+3)& (0+255),b
  5232  00280C                     
  5233                           ; BSR set to: 0
  5234                           ;main.c: 331:     data = (uint32_t)rand() * 1000 + rand();
  5235  00280C  EC4C  F019         	call	_rand	;wreg free
  5236  002810  0100               	movlb	0	; () banked
  5237  002812  C06C  F07B         	movff	?_rand,??_DGM_Effect
  5238  002816  C06D  F07C         	movff	?_rand+1,??_DGM_Effect+1
  5239  00281A  0E00               	movlw	0
  5240  00281C  BF7C               	btfsc	(??_DGM_Effect+1)& (0+255),7,b
  5241  00281E  0EFF               	movlw	255
  5242  002820  6F7D               	movwf	(??_DGM_Effect+2)& (0+255),b
  5243  002822  6F7E               	movwf	(??_DGM_Effect+3)& (0+255),b
  5244  002824  C07F  F060         	movff	_DGM_Effect$1004,___lmul@multiplier
  5245  002828  C080  F061         	movff	_DGM_Effect$1004+1,___lmul@multiplier+1
  5246  00282C  C081  F062         	movff	_DGM_Effect$1004+2,___lmul@multiplier+2
  5247  002830  C082  F063         	movff	_DGM_Effect$1004+3,___lmul@multiplier+3
  5248  002834  0EE8               	movlw	232
  5249  002836  6F64               	movwf	___lmul@multiplicand& (0+255),b
  5250  002838  0E03               	movlw	3
  5251  00283A  6F65               	movwf	(___lmul@multiplicand+1)& (0+255),b
  5252  00283C  0E00               	movlw	0
  5253  00283E  6F66               	movwf	(___lmul@multiplicand+2)& (0+255),b
  5254  002840  0E00               	movlw	0
  5255  002842  6F67               	movwf	(___lmul@multiplicand+3)& (0+255),b
  5256  002844  ECBA  F019         	call	___lmul	;wreg free
  5257  002848  0100               	movlb	0	; () banked
  5258  00284A  517B               	movf	??_DGM_Effect& (0+255),w,b
  5259  00284C  2560               	addwf	?___lmul& (0+255),w,b
  5260  00284E  6F83               	movwf	DGM_Effect@data& (0+255),b
  5261  002850  517C               	movf	(??_DGM_Effect+1)& (0+255),w,b
  5262  002852  2161               	addwfc	(?___lmul+1)& (0+255),w,b
  5263  002854  6F84               	movwf	(DGM_Effect@data+1)& (0+255),b
  5264  002856  517D               	movf	(??_DGM_Effect+2)& (0+255),w,b
  5265  002858  2162               	addwfc	(?___lmul+2)& (0+255),w,b
  5266  00285A  6F85               	movwf	(DGM_Effect@data+2)& (0+255),b
  5267  00285C  517E               	movf	(??_DGM_Effect+3)& (0+255),w,b
  5268  00285E  2163               	addwfc	(?___lmul+3)& (0+255),w,b
  5269  002860  6F86               	movwf	(DGM_Effect@data+3)& (0+255),b
  5270  002862                     
  5271                           ; BSR set to: 0
  5272                           ;main.c: 332:     data %= factor[val];
  5273  002862  C083  F06D         	movff	DGM_Effect@data,___llmod@dividend
  5274  002866  C084  F06E         	movff	DGM_Effect@data+1,___llmod@dividend+1
  5275  00286A  C085  F06F         	movff	DGM_Effect@data+2,___llmod@dividend+2
  5276  00286E  C086  F070         	movff	DGM_Effect@data+3,___llmod@dividend+3
  5277  002872  517A               	movf	DGM_Effect@val& (0+255),w,b
  5278  002874  0D04               	mullw	4
  5279  002876  0E01               	movlw	low DGM_Effect@factor
  5280  002878  24F3               	addwf	243,w,c
  5281  00287A  6EF6               	movwf	tblptrl,c
  5282  00287C  0E0F               	movlw	high DGM_Effect@factor
  5283  00287E  20F4               	addwfc	244,w,c
  5284  002880  6EF7               	movwf	tblptrh,c
  5285  002882                     	if	1	;There are 3 active tblptr bytes
  5286  002882  6AF8               	clrf	tblptru,c
  5287  002884  0E00               	movlw	low (__mediumconst shr (0+16))
  5288  002886  22F8               	addwfc	tblptru,f,c
  5289  002888                     	endif
  5290  002888  0009               	tblrd		*+
  5291  00288A  CFF5 F071          	movff	tablat,___llmod@divisor
  5292  00288E  0009               	tblrd		*+
  5293  002890  CFF5 F072          	movff	tablat,___llmod@divisor+1
  5294  002894  0009               	tblrd		*+
  5295  002896  CFF5 F073          	movff	tablat,___llmod@divisor+2
  5296  00289A  000A               	tblrd		*-
  5297  00289C  CFF5 F074          	movff	tablat,___llmod@divisor+3
  5298  0028A0  EC88  F018         	call	___llmod	;wreg free
  5299  0028A4  C06D  F083         	movff	?___llmod,DGM_Effect@data
  5300  0028A8  C06E  F084         	movff	?___llmod+1,DGM_Effect@data+1
  5301  0028AC  C06F  F085         	movff	?___llmod+2,DGM_Effect@data+2
  5302  0028B0  C070  F086         	movff	?___llmod+3,DGM_Effect@data+3
  5303  0028B4                     
  5304                           ;main.c: 333:     data += time * factor[val];
  5305  0028B4  0100               	movlb	0	; () banked
  5306  0028B6  517A               	movf	DGM_Effect@val& (0+255),w,b
  5307  0028B8  0D04               	mullw	4
  5308  0028BA  0E01               	movlw	low DGM_Effect@factor
  5309  0028BC  24F3               	addwf	243,w,c
  5310  0028BE  6EF6               	movwf	tblptrl,c
  5311  0028C0  0E0F               	movlw	high DGM_Effect@factor
  5312  0028C2  20F4               	addwfc	244,w,c
  5313  0028C4  6EF7               	movwf	tblptrh,c
  5314  0028C6                     	if	1	;There are 3 active tblptr bytes
  5315  0028C6  6AF8               	clrf	tblptru,c
  5316  0028C8  0E00               	movlw	low (__mediumconst shr (0+16))
  5317  0028CA  22F8               	addwfc	tblptru,f,c
  5318  0028CC                     	endif
  5319  0028CC  0009               	tblrd		*+
  5320  0028CE  CFF5 F060          	movff	tablat,___lmul@multiplier
  5321  0028D2  0009               	tblrd		*+
  5322  0028D4  CFF5 F061          	movff	tablat,___lmul@multiplier+1
  5323  0028D8  0009               	tblrd		*+
  5324  0028DA  CFF5 F062          	movff	tablat,___lmul@multiplier+2
  5325  0028DE  000A               	tblrd		*-
  5326  0028E0  CFF5 F063          	movff	tablat,___lmul@multiplier+3
  5327  0028E4  C076  F064         	movff	DGM_Effect@time,___lmul@multiplicand
  5328  0028E8  C077  F065         	movff	DGM_Effect@time+1,___lmul@multiplicand+1
  5329  0028EC  C078  F066         	movff	DGM_Effect@time+2,___lmul@multiplicand+2
  5330  0028F0  C079  F067         	movff	DGM_Effect@time+3,___lmul@multiplicand+3
  5331  0028F4  ECBA  F019         	call	___lmul	;wreg free
  5332  0028F8  0100               	movlb	0	; () banked
  5333  0028FA  5160               	movf	?___lmul& (0+255),w,b
  5334  0028FC  2783               	addwf	DGM_Effect@data& (0+255),f,b
  5335  0028FE  5161               	movf	(?___lmul+1)& (0+255),w,b
  5336  002900  2384               	addwfc	(DGM_Effect@data+1)& (0+255),f,b
  5337  002902  5162               	movf	(?___lmul+2)& (0+255),w,b
  5338  002904  2385               	addwfc	(DGM_Effect@data+2)& (0+255),f,b
  5339  002906  5163               	movf	(?___lmul+3)& (0+255),w,b
  5340  002908  2386               	addwfc	(DGM_Effect@data+3)& (0+255),f,b
  5341  00290A                     
  5342                           ; BSR set to: 0
  5343                           ;main.c: 335:     return data;
  5344  00290A  C083  F076         	movff	DGM_Effect@data,?_DGM_Effect
  5345  00290E  C084  F077         	movff	DGM_Effect@data+1,?_DGM_Effect+1
  5346  002912  C085  F078         	movff	DGM_Effect@data+2,?_DGM_Effect+2
  5347  002916  C086  F079         	movff	DGM_Effect@data+3,?_DGM_Effect+3
  5348  00291A                     
  5349                           ; BSR set to: 0
  5350  00291A  0012               	return		;funcret
  5351  00291C                     __end_of_DGM_Effect:
  5352                           	callstack 0
  5353                           
  5354 ;; *************** function _rand *****************
  5355 ;; Defined at:
  5356 ;;		line 11 in file "C:\Program Files\Microchip\xc8\v2.32\pic\sources\c99\common\rand.c"
  5357 ;; Parameters:    Size  Location     Type
  5358 ;;		None
  5359 ;; Auto vars:     Size  Location     Type
  5360 ;;		None
  5361 ;; Return value:  Size  Location     Type
  5362 ;;                  2   12[BANK0 ] int 
  5363 ;; Registers used:
  5364 ;;		wreg, status,2, status,0, cstack
  5365 ;; Tracked objects:
  5366 ;;		On entry : 0/0
  5367 ;;		On exit  : 0/0
  5368 ;;		Unchanged: 0/0
  5369 ;; Data sizes:     COMRAM   BANK0   BANK1   BANK2   BANK3   BANK4   BANK5   BANK6   BANK7   BANK8   BANK9  BANK10  BANK1
      +1  BANK12  BANK13  BANK14
  5370 ;;      Params:         0       2       0       0       0       0       0       0       0       0       0       0       
      +0       0       0       0
  5371 ;;      Locals:         0       0       0       0       0       0       0       0       0       0       0       0       
      +0       0       0       0
  5372 ;;      Temps:          0       4       0       0       0       0       0       0       0       0       0       0       
      +0       0       0       0
  5373 ;;      Totals:         0       6       0       0       0       0       0       0       0       0       0       0       
      +0       0       0       0
  5374 ;;Total ram usage:        6 bytes
  5375 ;; Hardware stack levels used: 1
  5376 ;; Hardware stack levels required when called: 5
  5377 ;; This function calls:
  5378 ;;		___lmul
  5379 ;; This function is called by:
  5380 ;;		_DGM_Effect
  5381 ;; This function uses a non-reentrant model
  5382 ;;
  5383                           
  5384                           	psect	text16
  5385  003298                     __ptext16:
  5386                           	callstack 0
  5387  003298                     _rand:
  5388                           	callstack 24
  5389  003298  C0CD  F060         	movff	_seed,___lmul@multiplier
  5390  00329C  C0CE  F061         	movff	_seed+1,___lmul@multiplier+1
  5391  0032A0  C0CF  F062         	movff	_seed+2,___lmul@multiplier+2
  5392  0032A4  C0D0  F063         	movff	_seed+3,___lmul@multiplier+3
  5393  0032A8  0E2D               	movlw	45
  5394  0032AA  0100               	movlb	0	; () banked
  5395  0032AC  6F64               	movwf	___lmul@multiplicand& (0+255),b
  5396  0032AE  0E7F               	movlw	127
  5397  0032B0  6F65               	movwf	(___lmul@multiplicand+1)& (0+255),b
  5398  0032B2  0E95               	movlw	149
  5399  0032B4  6F66               	movwf	(___lmul@multiplicand+2)& (0+255),b
  5400  0032B6  0E4C               	movlw	76
  5401  0032B8  6F67               	movwf	(___lmul@multiplicand+3)& (0+255),b
  5402  0032BA  ECBA  F019         	call	___lmul	;wreg free
  5403  0032BE  0E01               	movlw	1
  5404  0032C0  0100               	movlb	0	; () banked
  5405  0032C2  2560               	addwf	?___lmul& (0+255),w,b
  5406  0032C4  6FCD               	movwf	_seed& (0+255),b
  5407  0032C6  0E00               	movlw	0
  5408  0032C8  2161               	addwfc	(?___lmul+1)& (0+255),w,b
  5409  0032CA  6FCE               	movwf	(_seed+1)& (0+255),b
  5410  0032CC  0E00               	movlw	0
  5411  0032CE  2162               	addwfc	(?___lmul+2)& (0+255),w,b
  5412  0032D0  6FCF               	movwf	(_seed+2)& (0+255),b
  5413  0032D2  0E00               	movlw	0
  5414  0032D4  2163               	addwfc	(?___lmul+3)& (0+255),w,b
  5415  0032D6  6FD0               	movwf	(_seed+3)& (0+255),b
  5416  0032D8                     
  5417                           ; BSR set to: 0
  5418  0032D8  C0CD  F06E         	movff	_seed,??_rand
  5419  0032DC  C0CE  F06F         	movff	_seed+1,??_rand+1
  5420  0032E0  C0CF  F070         	movff	_seed+2,??_rand+2
  5421  0032E4  C0D0  F071         	movff	_seed+3,??_rand+3
  5422  0032E8  0E12               	movlw	18
  5423  0032EA  EF7C  F019         	goto	u3120
  5424  0032EE                     u3125:
  5425  0032EE  90D8               	bcf	status,0,c
  5426  0032F0  3371               	rrcf	(??_rand+3)& (0+255),f,b
  5427  0032F2  3370               	rrcf	(??_rand+2)& (0+255),f,b
  5428  0032F4  336F               	rrcf	(??_rand+1)& (0+255),f,b
  5429  0032F6  336E               	rrcf	??_rand& (0+255),f,b
  5430  0032F8                     u3120:
  5431  0032F8  2EE8               	decfsz	wreg,f,c
  5432  0032FA  EF77  F019         	goto	u3125
  5433  0032FE  C06E  F06C         	movff	??_rand,?_rand
  5434  003302  C06F  F06D         	movff	??_rand+1,?_rand+1
  5435  003306                     
  5436                           ; BSR set to: 0
  5437  003306  0012               	return		;funcret
  5438  003308                     __end_of_rand:
  5439                           	callstack 0
  5440                           
  5441 ;; *************** function ___lmul *****************
  5442 ;; Defined at:
  5443 ;;		line 15 in file "C:\Program Files\Microchip\xc8\v2.32\pic\sources\c99\common\Umul32.c"
  5444 ;; Parameters:    Size  Location     Type
  5445 ;;  multiplier      4    0[BANK0 ] unsigned long 
  5446 ;;  multiplicand    4    4[BANK0 ] unsigned long 
  5447 ;; Auto vars:     Size  Location     Type
  5448 ;;  product         4    8[BANK0 ] unsigned long 
  5449 ;; Return value:  Size  Location     Type
  5450 ;;                  4    0[BANK0 ] unsigned long 
  5451 ;; Registers used:
  5452 ;;		wreg, status,2, status,0
  5453 ;; Tracked objects:
  5454 ;;		On entry : 0/0
  5455 ;;		On exit  : 0/0
  5456 ;;		Unchanged: 0/0
  5457 ;; Data sizes:     COMRAM   BANK0   BANK1   BANK2   BANK3   BANK4   BANK5   BANK6   BANK7   BANK8   BANK9  BANK10  BANK1
      +1  BANK12  BANK13  BANK14
  5458 ;;      Params:         0       8       0       0       0       0       0       0       0       0       0       0       
      +0       0       0       0
  5459 ;;      Locals:         0       4       0       0       0       0       0       0       0       0       0       0       
      +0       0       0       0
  5460 ;;      Temps:          0       0       0       0       0       0       0       0       0       0       0       0       
      +0       0       0       0
  5461 ;;      Totals:         0      12       0       0       0       0       0       0       0       0       0       0       
      +0       0       0       0
  5462 ;;Total ram usage:       12 bytes
  5463 ;; Hardware stack levels used: 1
  5464 ;; Hardware stack levels required when called: 4
  5465 ;; This function calls:
  5466 ;;		Nothing
  5467 ;; This function is called by:
  5468 ;;		_DGM_Effect
  5469 ;;		_rand
  5470 ;; This function uses a non-reentrant model
  5471 ;;
  5472                           
  5473                           	psect	text17
  5474  003374                     __ptext17:
  5475                           	callstack 0
  5476  003374                     ___lmul:
  5477                           	callstack 24
  5478  003374  0E00               	movlw	0
  5479  003376  0100               	movlb	0	; () banked
  5480  003378  6F68               	movwf	___lmul@product& (0+255),b
  5481  00337A  0E00               	movlw	0
  5482  00337C  6F69               	movwf	(___lmul@product+1)& (0+255),b
  5483  00337E  0E00               	movlw	0
  5484  003380  6F6A               	movwf	(___lmul@product+2)& (0+255),b
  5485  003382  0E00               	movlw	0
  5486  003384  6F6B               	movwf	(___lmul@product+3)& (0+255),b
  5487  003386                     l2132:
  5488                           
  5489                           ; BSR set to: 0
  5490  003386  A160               	btfss	___lmul@multiplier& (0+255),0,b
  5491  003388  EFC8  F019         	goto	u1811
  5492  00338C  EFCA  F019         	goto	u1810
  5493  003390                     u1811:
  5494  003390  EFD2  F019         	goto	l2136
  5495  003394                     u1810:
  5496  003394                     
  5497                           ; BSR set to: 0
  5498  003394  5164               	movf	___lmul@multiplicand& (0+255),w,b
  5499  003396  2768               	addwf	___lmul@product& (0+255),f,b
  5500  003398  5165               	movf	(___lmul@multiplicand+1)& (0+255),w,b
  5501  00339A  2369               	addwfc	(___lmul@product+1)& (0+255),f,b
  5502  00339C  5166               	movf	(___lmul@multiplicand+2)& (0+255),w,b
  5503  00339E  236A               	addwfc	(___lmul@product+2)& (0+255),f,b
  5504  0033A0  5167               	movf	(___lmul@multiplicand+3)& (0+255),w,b
  5505  0033A2  236B               	addwfc	(___lmul@product+3)& (0+255),f,b
  5506  0033A4                     l2136:
  5507                           
  5508                           ; BSR set to: 0
  5509  0033A4  90D8               	bcf	status,0,c
  5510  0033A6  3764               	rlcf	___lmul@multiplicand& (0+255),f,b
  5511  0033A8  3765               	rlcf	(___lmul@multiplicand+1)& (0+255),f,b
  5512  0033AA  3766               	rlcf	(___lmul@multiplicand+2)& (0+255),f,b
  5513  0033AC  3767               	rlcf	(___lmul@multiplicand+3)& (0+255),f,b
  5514  0033AE                     
  5515                           ; BSR set to: 0
  5516  0033AE  90D8               	bcf	status,0,c
  5517  0033B0  3363               	rrcf	(___lmul@multiplier+3)& (0+255),f,b
  5518  0033B2  3362               	rrcf	(___lmul@multiplier+2)& (0+255),f,b
  5519  0033B4  3361               	rrcf	(___lmul@multiplier+1)& (0+255),f,b
  5520  0033B6  3360               	rrcf	___lmul@multiplier& (0+255),f,b
  5521  0033B8  5160               	movf	___lmul@multiplier& (0+255),w,b
  5522  0033BA  1161               	iorwf	(___lmul@multiplier+1)& (0+255),w,b
  5523  0033BC  1162               	iorwf	(___lmul@multiplier+2)& (0+255),w,b
  5524  0033BE  1163               	iorwf	(___lmul@multiplier+3)& (0+255),w,b
  5525  0033C0  A4D8               	btfss	status,2,c
  5526  0033C2  EFE5  F019         	goto	u1821
  5527  0033C6  EFE7  F019         	goto	u1820
  5528  0033CA                     u1821:
  5529  0033CA  EFC3  F019         	goto	l2132
  5530  0033CE                     u1820:
  5531  0033CE                     
  5532                           ; BSR set to: 0
  5533  0033CE  C068  F060         	movff	___lmul@product,?___lmul
  5534  0033D2  C069  F061         	movff	___lmul@product+1,?___lmul+1
  5535  0033D6  C06A  F062         	movff	___lmul@product+2,?___lmul+2
  5536  0033DA  C06B  F063         	movff	___lmul@product+3,?___lmul+3
  5537  0033DE                     
  5538                           ; BSR set to: 0
  5539  0033DE  0012               	return		;funcret
  5540  0033E0                     __end_of___lmul:
  5541                           	callstack 0
  5542                           
  5543 ;; *************** function ___llmod *****************
  5544 ;; Defined at:
  5545 ;;		line 7 in file "C:\Program Files\Microchip\xc8\v2.32\pic\sources\c99\common\llmod.c"
  5546 ;; Parameters:    Size  Location     Type
  5547 ;;  dividend        4   13[BANK0 ] unsigned long 
  5548 ;;  divisor         4   17[BANK0 ] unsigned long 
  5549 ;; Auto vars:     Size  Location     Type
  5550 ;;  counter         1   21[BANK0 ] unsigned char 
  5551 ;; Return value:  Size  Location     Type
  5552 ;;                  4   13[BANK0 ] unsigned long 
  5553 ;; Registers used:
  5554 ;;		wreg, status,2, status,0
  5555 ;; Tracked objects:
  5556 ;;		On entry : 0/0
  5557 ;;		On exit  : 0/0
  5558 ;;		Unchanged: 0/0
  5559 ;; Data sizes:     COMRAM   BANK0   BANK1   BANK2   BANK3   BANK4   BANK5   BANK6   BANK7   BANK8   BANK9  BANK10  BANK1
      +1  BANK12  BANK13  BANK14
  5560 ;;      Params:         0       8       0       0       0       0       0       0       0       0       0       0       
      +0       0       0       0
  5561 ;;      Locals:         0       1       0       0       0       0       0       0       0       0       0       0       
      +0       0       0       0
  5562 ;;      Temps:          0       0       0       0       0       0       0       0       0       0       0       0       
      +0       0       0       0
  5563 ;;      Totals:         0       9       0       0       0       0       0       0       0       0       0       0       
      +0       0       0       0
  5564 ;;Total ram usage:        9 bytes
  5565 ;; Hardware stack levels used: 1
  5566 ;; Hardware stack levels required when called: 4
  5567 ;; This function calls:
  5568 ;;		Nothing
  5569 ;; This function is called by:
  5570 ;;		_NTC_Write
  5571 ;;		_DGM_Effect
  5572 ;; This function uses a non-reentrant model
  5573 ;;
  5574                           
  5575                           	psect	text18
  5576  003110                     __ptext18:
  5577                           	callstack 0
  5578  003110                     ___llmod:
  5579                           	callstack 25
  5580  003110  0100               	movlb	0	; () banked
  5581  003112  5171               	movf	___llmod@divisor& (0+255),w,b
  5582  003114  1172               	iorwf	(___llmod@divisor+1)& (0+255),w,b
  5583  003116  1173               	iorwf	(___llmod@divisor+2)& (0+255),w,b
  5584  003118  1174               	iorwf	(___llmod@divisor+3)& (0+255),w,b
  5585  00311A  B4D8               	btfsc	status,2,c
  5586  00311C  EF92  F018         	goto	u3161
  5587  003120  EF94  F018         	goto	u3160
  5588  003124                     u3161:
  5589  003124  EFC4  F018         	goto	l684
  5590  003128                     u3160:
  5591  003128                     
  5592                           ; BSR set to: 0
  5593  003128  0E01               	movlw	1
  5594  00312A  6F75               	movwf	___llmod@counter& (0+255),b
  5595  00312C  EF9E  F018         	goto	l2928
  5596  003130                     l2926:
  5597                           
  5598                           ; BSR set to: 0
  5599  003130  90D8               	bcf	status,0,c
  5600  003132  3771               	rlcf	___llmod@divisor& (0+255),f,b
  5601  003134  3772               	rlcf	(___llmod@divisor+1)& (0+255),f,b
  5602  003136  3773               	rlcf	(___llmod@divisor+2)& (0+255),f,b
  5603  003138  3774               	rlcf	(___llmod@divisor+3)& (0+255),f,b
  5604  00313A  2B75               	incf	___llmod@counter& (0+255),f,b
  5605  00313C                     l2928:
  5606                           
  5607                           ; BSR set to: 0
  5608  00313C  AF74               	btfss	(___llmod@divisor+3)& (0+255),7,b
  5609  00313E  EFA3  F018         	goto	u3171
  5610  003142  EFA5  F018         	goto	u3170
  5611  003146                     u3171:
  5612  003146  EF98  F018         	goto	l2926
  5613  00314A                     u3170:
  5614  00314A                     l2930:
  5615                           
  5616                           ; BSR set to: 0
  5617  00314A  5171               	movf	___llmod@divisor& (0+255),w,b
  5618  00314C  5D6D               	subwf	___llmod@dividend& (0+255),w,b
  5619  00314E  5172               	movf	(___llmod@divisor+1)& (0+255),w,b
  5620  003150  596E               	subwfb	(___llmod@dividend+1)& (0+255),w,b
  5621  003152  5173               	movf	(___llmod@divisor+2)& (0+255),w,b
  5622  003154  596F               	subwfb	(___llmod@dividend+2)& (0+255),w,b
  5623  003156  5174               	movf	(___llmod@divisor+3)& (0+255),w,b
  5624  003158  5970               	subwfb	(___llmod@dividend+3)& (0+255),w,b
  5625  00315A  A0D8               	btfss	status,0,c
  5626  00315C  EFB2  F018         	goto	u3181
  5627  003160  EFB4  F018         	goto	u3180
  5628  003164                     u3181:
  5629  003164  EFBC  F018         	goto	l2934
  5630  003168                     u3180:
  5631  003168                     
  5632                           ; BSR set to: 0
  5633  003168  5171               	movf	___llmod@divisor& (0+255),w,b
  5634  00316A  5F6D               	subwf	___llmod@dividend& (0+255),f,b
  5635  00316C  5172               	movf	(___llmod@divisor+1)& (0+255),w,b
  5636  00316E  5B6E               	subwfb	(___llmod@dividend+1)& (0+255),f,b
  5637  003170  5173               	movf	(___llmod@divisor+2)& (0+255),w,b
  5638  003172  5B6F               	subwfb	(___llmod@dividend+2)& (0+255),f,b
  5639  003174  5174               	movf	(___llmod@divisor+3)& (0+255),w,b
  5640  003176  5B70               	subwfb	(___llmod@dividend+3)& (0+255),f,b
  5641  003178                     l2934:
  5642                           
  5643                           ; BSR set to: 0
  5644  003178  90D8               	bcf	status,0,c
  5645  00317A  3374               	rrcf	(___llmod@divisor+3)& (0+255),f,b
  5646  00317C  3373               	rrcf	(___llmod@divisor+2)& (0+255),f,b
  5647  00317E  3372               	rrcf	(___llmod@divisor+1)& (0+255),f,b
  5648  003180  3371               	rrcf	___llmod@divisor& (0+255),f,b
  5649  003182                     
  5650                           ; BSR set to: 0
  5651  003182  2F75               	decfsz	___llmod@counter& (0+255),f,b
  5652  003184  EFA5  F018         	goto	l2930
  5653  003188                     l684:
  5654                           
  5655                           ; BSR set to: 0
  5656  003188  C06D  F06D         	movff	___llmod@dividend,?___llmod
  5657  00318C  C06E  F06E         	movff	___llmod@dividend+1,?___llmod+1
  5658  003190  C06F  F06F         	movff	___llmod@dividend+2,?___llmod+2
  5659  003194  C070  F070         	movff	___llmod@dividend+3,?___llmod+3
  5660  003198                     
  5661                           ; BSR set to: 0
  5662  003198  0012               	return		;funcret
  5663  00319A                     __end_of___llmod:
  5664                           	callstack 0
  5665                           
  5666 ;; *************** function ___lldiv *****************
  5667 ;; Defined at:
  5668 ;;		line 7 in file "C:\Program Files\Microchip\xc8\v2.32\pic\sources\c99\common\__lldiv.c"
  5669 ;; Parameters:    Size  Location     Type
  5670 ;;  dividend        4    0[BANK0 ] unsigned long 
  5671 ;;  divisor         4    4[BANK0 ] unsigned long 
  5672 ;; Auto vars:     Size  Location     Type
  5673 ;;  quotient        4    8[BANK0 ] unsigned long 
  5674 ;;  counter         1   12[BANK0 ] unsigned char 
  5675 ;; Return value:  Size  Location     Type
  5676 ;;                  4    0[BANK0 ] unsigned long 
  5677 ;; Registers used:
  5678 ;;		wreg, status,2, status,0
  5679 ;; Tracked objects:
  5680 ;;		On entry : 0/0
  5681 ;;		On exit  : 0/0
  5682 ;;		Unchanged: 0/0
  5683 ;; Data sizes:     COMRAM   BANK0   BANK1   BANK2   BANK3   BANK4   BANK5   BANK6   BANK7   BANK8   BANK9  BANK10  BANK1
      +1  BANK12  BANK13  BANK14
  5684 ;;      Params:         0       8       0       0       0       0       0       0       0       0       0       0       
      +0       0       0       0
  5685 ;;      Locals:         0       5       0       0       0       0       0       0       0       0       0       0       
      +0       0       0       0
  5686 ;;      Temps:          0       0       0       0       0       0       0       0       0       0       0       0       
      +0       0       0       0
  5687 ;;      Totals:         0      13       0       0       0       0       0       0       0       0       0       0       
      +0       0       0       0
  5688 ;;Total ram usage:       13 bytes
  5689 ;; Hardware stack levels used: 1
  5690 ;; Hardware stack levels required when called: 4
  5691 ;; This function calls:
  5692 ;;		Nothing
  5693 ;; This function is called by:
  5694 ;;		_NTC_Write
  5695 ;;		_DGM_Effect
  5696 ;; This function uses a non-reentrant model
  5697 ;;
  5698                           
  5699                           	psect	text19
  5700  002FC6                     __ptext19:
  5701                           	callstack 0
  5702  002FC6                     ___lldiv:
  5703                           	callstack 25
  5704  002FC6  0E00               	movlw	0
  5705  002FC8  0100               	movlb	0	; () banked
  5706  002FCA  6F68               	movwf	___lldiv@quotient& (0+255),b
  5707  002FCC  0E00               	movlw	0
  5708  002FCE  6F69               	movwf	(___lldiv@quotient+1)& (0+255),b
  5709  002FD0  0E00               	movlw	0
  5710  002FD2  6F6A               	movwf	(___lldiv@quotient+2)& (0+255),b
  5711  002FD4  0E00               	movlw	0
  5712  002FD6  6F6B               	movwf	(___lldiv@quotient+3)& (0+255),b
  5713  002FD8                     
  5714                           ; BSR set to: 0
  5715  002FD8  5164               	movf	___lldiv@divisor& (0+255),w,b
  5716  002FDA  1165               	iorwf	(___lldiv@divisor+1)& (0+255),w,b
  5717  002FDC  1166               	iorwf	(___lldiv@divisor+2)& (0+255),w,b
  5718  002FDE  1167               	iorwf	(___lldiv@divisor+3)& (0+255),w,b
  5719  002FE0  B4D8               	btfsc	status,2,c
  5720  002FE2  EFF5  F017         	goto	u3131
  5721  002FE6  EFF7  F017         	goto	u3130
  5722  002FEA                     u3131:
  5723  002FEA  EF2D  F018         	goto	l291
  5724  002FEE                     u3130:
  5725  002FEE                     
  5726                           ; BSR set to: 0
  5727  002FEE  0E01               	movlw	1
  5728  002FF0  6F6C               	movwf	___lldiv@counter& (0+255),b
  5729  002FF2  EF01  F018         	goto	l2908
  5730  002FF6                     l2906:
  5731                           
  5732                           ; BSR set to: 0
  5733  002FF6  90D8               	bcf	status,0,c
  5734  002FF8  3764               	rlcf	___lldiv@divisor& (0+255),f,b
  5735  002FFA  3765               	rlcf	(___lldiv@divisor+1)& (0+255),f,b
  5736  002FFC  3766               	rlcf	(___lldiv@divisor+2)& (0+255),f,b
  5737  002FFE  3767               	rlcf	(___lldiv@divisor+3)& (0+255),f,b
  5738  003000  2B6C               	incf	___lldiv@counter& (0+255),f,b
  5739  003002                     l2908:
  5740                           
  5741                           ; BSR set to: 0
  5742  003002  AF67               	btfss	(___lldiv@divisor+3)& (0+255),7,b
  5743  003004  EF06  F018         	goto	u3141
  5744  003008  EF08  F018         	goto	u3140
  5745  00300C                     u3141:
  5746  00300C  EFFB  F017         	goto	l2906
  5747  003010                     u3140:
  5748  003010                     l2910:
  5749                           
  5750                           ; BSR set to: 0
  5751  003010  90D8               	bcf	status,0,c
  5752  003012  3768               	rlcf	___lldiv@quotient& (0+255),f,b
  5753  003014  3769               	rlcf	(___lldiv@quotient+1)& (0+255),f,b
  5754  003016  376A               	rlcf	(___lldiv@quotient+2)& (0+255),f,b
  5755  003018  376B               	rlcf	(___lldiv@quotient+3)& (0+255),f,b
  5756  00301A                     
  5757                           ; BSR set to: 0
  5758  00301A  5164               	movf	___lldiv@divisor& (0+255),w,b
  5759  00301C  5D60               	subwf	___lldiv@dividend& (0+255),w,b
  5760  00301E  5165               	movf	(___lldiv@divisor+1)& (0+255),w,b
  5761  003020  5961               	subwfb	(___lldiv@dividend+1)& (0+255),w,b
  5762  003022  5166               	movf	(___lldiv@divisor+2)& (0+255),w,b
  5763  003024  5962               	subwfb	(___lldiv@dividend+2)& (0+255),w,b
  5764  003026  5167               	movf	(___lldiv@divisor+3)& (0+255),w,b
  5765  003028  5963               	subwfb	(___lldiv@dividend+3)& (0+255),w,b
  5766  00302A  A0D8               	btfss	status,0,c
  5767  00302C  EF1A  F018         	goto	u3151
  5768  003030  EF1C  F018         	goto	u3150
  5769  003034                     u3151:
  5770  003034  EF25  F018         	goto	l2918
  5771  003038                     u3150:
  5772  003038                     
  5773                           ; BSR set to: 0
  5774  003038  5164               	movf	___lldiv@divisor& (0+255),w,b
  5775  00303A  5F60               	subwf	___lldiv@dividend& (0+255),f,b
  5776  00303C  5165               	movf	(___lldiv@divisor+1)& (0+255),w,b
  5777  00303E  5B61               	subwfb	(___lldiv@dividend+1)& (0+255),f,b
  5778  003040  5166               	movf	(___lldiv@divisor+2)& (0+255),w,b
  5779  003042  5B62               	subwfb	(___lldiv@dividend+2)& (0+255),f,b
  5780  003044  5167               	movf	(___lldiv@divisor+3)& (0+255),w,b
  5781  003046  5B63               	subwfb	(___lldiv@dividend+3)& (0+255),f,b
  5782  003048                     
  5783                           ; BSR set to: 0
  5784  003048  8168               	bsf	___lldiv@quotient& (0+255),0,b
  5785  00304A                     l2918:
  5786                           
  5787                           ; BSR set to: 0
  5788  00304A  90D8               	bcf	status,0,c
  5789  00304C  3367               	rrcf	(___lldiv@divisor+3)& (0+255),f,b
  5790  00304E  3366               	rrcf	(___lldiv@divisor+2)& (0+255),f,b
  5791  003050  3365               	rrcf	(___lldiv@divisor+1)& (0+255),f,b
  5792  003052  3364               	rrcf	___lldiv@divisor& (0+255),f,b
  5793  003054                     
  5794                           ; BSR set to: 0
  5795  003054  2F6C               	decfsz	___lldiv@counter& (0+255),f,b
  5796  003056  EF08  F018         	goto	l2910
  5797  00305A                     l291:
  5798                           
  5799                           ; BSR set to: 0
  5800  00305A  C068  F060         	movff	___lldiv@quotient,?___lldiv
  5801  00305E  C069  F061         	movff	___lldiv@quotient+1,?___lldiv+1
  5802  003062  C06A  F062         	movff	___lldiv@quotient+2,?___lldiv+2
  5803  003066  C06B  F063         	movff	___lldiv@quotient+3,?___lldiv+3
  5804  00306A                     
  5805                           ; BSR set to: 0
  5806  00306A  0012               	return		;funcret
  5807  00306C                     __end_of___lldiv:
  5808                           	callstack 0
  5809                           
  5810 ;; *************** function _isr *****************
  5811 ;; Defined at:
  5812 ;;		line 167 in file "main.c"
  5813 ;; Parameters:    Size  Location     Type
  5814 ;;		None
  5815 ;; Auto vars:     Size  Location     Type
  5816 ;;		None
  5817 ;; Return value:  Size  Location     Type
  5818 ;;                  1    wreg      void 
  5819 ;; Registers used:
  5820 ;;		wreg, fsr2l, fsr2h, status,2, status,0, cstack
  5821 ;; Tracked objects:
  5822 ;;		On entry : 0/0
  5823 ;;		On exit  : 0/0
  5824 ;;		Unchanged: 0/0
  5825 ;; Data sizes:     COMRAM   BANK0   BANK1   BANK2   BANK3   BANK4   BANK5   BANK6   BANK7   BANK8   BANK9  BANK10  BANK1
      +1  BANK12  BANK13  BANK14
  5826 ;;      Params:         0       0       0       0       0       0       0       0       0       0       0       0       
      +0       0       0       0
  5827 ;;      Locals:         0       0       0       0       0       0       0       0       0       0       0       0       
      +0       0       0       0
  5828 ;;      Temps:          2       0       0       0       0       0       0       0       0       0       0       0       
      +0       0       0       0
  5829 ;;      Totals:         2       0       0       0       0       0       0       0       0       0       0       0       
      +0       0       0       0
  5830 ;;Total ram usage:        2 bytes
  5831 ;; Hardware stack levels used: 1
  5832 ;; Hardware stack levels required when called: 3
  5833 ;; This function calls:
  5834 ;;		_RTC_Read
  5835 ;;		_UART_Read
  5836 ;; This function is called by:
  5837 ;;		Interrupt level 2
  5838 ;; This function uses a non-reentrant model
  5839 ;;
  5840                           
  5841                           	psect	intcode
  5842  000008                     __pintcode:
  5843                           	callstack 0
  5844  000008                     _isr:
  5845                           	callstack 24
  5846                           
  5847                           ; BSR set to: 0
  5848                           ;incstack = 0
  5849  000008  824B               	bsf	int$flags,1,c	;set compiler interrupt flag (level 2)
  5850  00000A  CFD9 F03C          	movff	fsr2l,??_isr
  5851  00000E  CFDA F03D          	movff	fsr2h,??_isr+1
  5852  000012                     
  5853                           ;main.c: 170:     if (TMR0IF) {
  5854  000012  010E               	movlb	14	; () banked
  5855  000014  ABC5               	btfss	197,5,b	;volatile
  5856  000016  EF0F  F000         	goto	i2u353_41
  5857  00001A  EF11  F000         	goto	i2u353_40
  5858  00001E                     i2u353_41:
  5859  00001E  EF21  F000         	goto	i2l3174
  5860  000022                     i2u353_40:
  5861  000022                     
  5862                           ; BSR set to: 14
  5863                           ;main.c: 171:         ((void)(TMR0H=((65036)>>8),TMR0L=((65036)&0xFF)));
  5864  000022  0EFE               	movlw	254
  5865  000024  6ED3               	movwf	211,c	;volatile
  5866  000026  0E0C               	movlw	12
  5867  000028  6ED2               	movwf	210,c	;volatile
  5868  00002A                     
  5869                           ; BSR set to: 14
  5870                           ;main.c: 172:         TMR0IF = 0;
  5871  00002A  9BC5               	bcf	197,5,b	;volatile
  5872  00002C                     
  5873                           ; BSR set to: 14
  5874                           ;main.c: 173:         g_t0_f = ~g_t0_f;
  5875  00002C  0440               	decf	_g_t0_f^0,w,c
  5876  00002E  A4D8               	btfss	status,2,c
  5877  000030  EF1C  F000         	goto	i2u354_41
  5878  000034  EF1F  F000         	goto	i2u354_40
  5879  000038                     i2u354_41:
  5880  000038  0E01               	movlw	1
  5881  00003A  EF20  F000         	goto	i2u355_40
  5882  00003E                     i2u354_40:
  5883  00003E  0E00               	movlw	0
  5884  000040                     i2u355_40:
  5885  000040  6E40               	movwf	_g_t0_f^0,c
  5886  000042                     i2l3174:
  5887                           
  5888                           ; BSR set to: 14
  5889                           ;main.c: 176:     if (RCIF) {
  5890  000042  ABC8               	btfss	200,5,b	;volatile
  5891  000044  EF26  F000         	goto	i2u356_41
  5892  000048  EF28  F000         	goto	i2u356_40
  5893  00004C                     i2u356_41:
  5894  00004C  EF2C  F000         	goto	i2l143
  5895  000050                     i2u356_40:
  5896  000050                     
  5897                           ; BSR set to: 14
  5898                           ;main.c: 177:         RTC_Read(UART_Read());
  5899  000050  ECC7  F01A         	call	_UART_Read	;wreg free
  5900  000054  EC49  F015         	call	_RTC_Read
  5901  000058                     i2l143:
  5902  000058  C03D  FFDA         	movff	??_isr+1,fsr2h
  5903  00005C  C03C  FFD9         	movff	??_isr,fsr2l
  5904  000060  924B               	bcf	int$flags,1,c	;clear compiler interrupt flag (level 2)
  5905  000062  0011               	retfie		f
  5906  000064                     __end_of_isr:
  5907                           	callstack 0
  5908                           
  5909 ;; *************** function _UART_Read *****************
  5910 ;; Defined at:
  5911 ;;		line 29 in file "library/UART/UART.c"
  5912 ;; Parameters:    Size  Location     Type
  5913 ;;		None
  5914 ;; Auto vars:     Size  Location     Type
  5915 ;;		None
  5916 ;; Return value:  Size  Location     Type
  5917 ;;                  1    wreg      unsigned char 
  5918 ;; Registers used:
  5919 ;;		wreg, status,2
  5920 ;; Tracked objects:
  5921 ;;		On entry : 0/0
  5922 ;;		On exit  : 0/0
  5923 ;;		Unchanged: 0/0
  5924 ;; Data sizes:     COMRAM   BANK0   BANK1   BANK2   BANK3   BANK4   BANK5   BANK6   BANK7   BANK8   BANK9  BANK10  BANK1
      +1  BANK12  BANK13  BANK14
  5925 ;;      Params:         0       0       0       0       0       0       0       0       0       0       0       0       
      +0       0       0       0
  5926 ;;      Locals:         0       0       0       0       0       0       0       0       0       0       0       0       
      +0       0       0       0
  5927 ;;      Temps:          0       0       0       0       0       0       0       0       0       0       0       0       
      +0       0       0       0
  5928 ;;      Totals:         0       0       0       0       0       0       0       0       0       0       0       0       
      +0       0       0       0
  5929 ;;Total ram usage:        0 bytes
  5930 ;; Hardware stack levels used: 1
  5931 ;; This function calls:
  5932 ;;		Nothing
  5933 ;; This function is called by:
  5934 ;;		_isr
  5935 ;; This function uses a non-reentrant model
  5936 ;;
  5937                           
  5938                           	psect	text21
  5939  00358E                     __ptext21:
  5940                           	callstack 0
  5941  00358E                     _UART_Read:
  5942                           	callstack 26
  5943  00358E                     
  5944                           ;library/UART/UART.c: 31:     if (RC1STAbits.OERR == 1) {
  5945  00358E  A29C               	btfss	156,1,c	;volatile
  5946  003590  EFCC  F01A         	goto	i2u154_41
  5947  003594  EFCE  F01A         	goto	i2u154_40
  5948  003598                     i2u154_41:
  5949  003598  EFD0  F01A         	goto	i2l1934
  5950  00359C                     i2u154_40:
  5951  00359C                     
  5952                           ;library/UART/UART.c: 32:         RC1STAbits.CREN = 0;
  5953  00359C  989C               	bcf	156,4,c	;volatile
  5954                           
  5955                           ;library/UART/UART.c: 33:         RC1STAbits.CREN = 1;
  5956  00359E  889C               	bsf	156,4,c	;volatile
  5957  0035A0                     i2l1934:
  5958                           
  5959                           ;library/UART/UART.c: 36:     return RCREG;
  5960  0035A0  5098               	movf	152,w,c	;volatile
  5961  0035A2  0012               	return		;funcret
  5962  0035A4                     __end_of_UART_Read:
  5963                           	callstack 0
  5964                           
  5965 ;; *************** function _RTC_Read *****************
  5966 ;; Defined at:
  5967 ;;		line 244 in file "main.c"
  5968 ;; Parameters:    Size  Location     Type
  5969 ;;  data            1    wreg     unsigned char 
  5970 ;; Auto vars:     Size  Location     Type
  5971 ;;  data            1   58[COMRAM] unsigned char 
  5972 ;; Return value:  Size  Location     Type
  5973 ;;                  1    wreg      void 
  5974 ;; Registers used:
  5975 ;;		wreg, fsr2l, fsr2h, status,2, status,0, cstack
  5976 ;; Tracked objects:
  5977 ;;		On entry : 0/0
  5978 ;;		On exit  : 0/0
  5979 ;;		Unchanged: 0/0
  5980 ;; Data sizes:     COMRAM   BANK0   BANK1   BANK2   BANK3   BANK4   BANK5   BANK6   BANK7   BANK8   BANK9  BANK10  BANK1
      +1  BANK12  BANK13  BANK14
  5981 ;;      Params:         0       0       0       0       0       0       0       0       0       0       0       0       
      +0       0       0       0
  5982 ;;      Locals:         1       0       0       0       0       0       0       0       0       0       0       0       
      +0       0       0       0
  5983 ;;      Temps:          2       0       0       0       0       0       0       0       0       0       0       0       
      +0       0       0       0
  5984 ;;      Totals:         3       0       0       0       0       0       0       0       0       0       0       0       
      +0       0       0       0
  5985 ;;Total ram usage:        3 bytes
  5986 ;; Hardware stack levels used: 1
  5987 ;; Hardware stack levels required when called: 2
  5988 ;; This function calls:
  5989 ;;		_Convert_data
  5990 ;;		_atol
  5991 ;;		_memset
  5992 ;; This function is called by:
  5993 ;;		_isr
  5994 ;; This function uses a non-reentrant model
  5995 ;;
  5996                           
  5997                           	psect	text22
  5998  002A92                     __ptext22:
  5999                           	callstack 0
  6000  002A92                     _RTC_Read:
  6001                           	callstack 24
  6002                           
  6003                           ;incstack = 0
  6004                           ;RTC_Read@data stored from wreg
  6005  002A92  6E3B               	movwf	RTC_Read@data^0,c
  6006  002A94                     
  6007                           ;main.c: 244: void RTC_Read(uint8_t data);main.c: 245: {;main.c: 246:     static int16_t
      +                           cnt = 0;;main.c: 247:     static char str[10];;main.c: 249:     switch (cnt) {
  6008  002A94  EF82  F015         	goto	i2l3082
  6009  002A98                     i2l3062:
  6010                           
  6011                           ;main.c: 252:             if (data == '$') {
  6012  002A98  0E24               	movlw	36
  6013  002A9A  183B               	xorwf	RTC_Read@data^0,w,c
  6014  002A9C  A4D8               	btfss	status,2,c
  6015  002A9E  EF53  F015         	goto	i2u334_41
  6016  002AA2  EF55  F015         	goto	i2u334_40
  6017  002AA6                     i2u334_41:
  6018  002AA6  EFB0  F015         	goto	i2l3084
  6019  002AAA                     i2u334_40:
  6020  002AAA                     
  6021                           ;main.c: 254:                 memset(str, '\0', sizeof(str));
  6022  002AAA  0E41               	movlw	low RTC_Read@str
  6023  002AAC  6E01               	movwf	memset@dest^0,c
  6024  002AAE  0E00               	movlw	high RTC_Read@str
  6025  002AB0  6E02               	movwf	(memset@dest+1)^0,c
  6026  002AB2  0E00               	movlw	0
  6027  002AB4  6E04               	movwf	(memset@c+1)^0,c
  6028  002AB6  0E00               	movlw	0
  6029  002AB8  6E03               	movwf	memset@c^0,c
  6030  002ABA  0E00               	movlw	0
  6031  002ABC  6E06               	movwf	(memset@n+1)^0,c
  6032  002ABE  0E0A               	movlw	10
  6033  002AC0  6E05               	movwf	memset@n^0,c
  6034  002AC2  EC8E  F014         	call	_memset	;wreg free
  6035  002AC6                     i2l3066:
  6036                           
  6037                           ;main.c: 255:                 cnt++;
  6038  002AC6  4A3E               	infsnz	RTC_Read@cnt^0,f,c
  6039  002AC8  2A3F               	incf	(RTC_Read@cnt+1)^0,f,c
  6040  002ACA  EFB0  F015         	goto	i2l3084
  6041  002ACE                     i2l3068:
  6042                           
  6043                           ;main.c: 261:             if (data == 'Z') {
  6044  002ACE  0E5A               	movlw	90
  6045  002AD0  183B               	xorwf	RTC_Read@data^0,w,c
  6046  002AD2  A4D8               	btfss	status,2,c
  6047  002AD4  EF6E  F015         	goto	i2u335_41
  6048  002AD8  EF70  F015         	goto	i2u335_40
  6049  002ADC                     i2u335_41:
  6050  002ADC  EF72  F015         	goto	i2l3072
  6051  002AE0                     i2u335_40:
  6052  002AE0  EF63  F015         	goto	i2l3066
  6053  002AE4                     i2l3072:
  6054                           
  6055                           ;main.c: 265:                 cnt = 0;
  6056  002AE4  0E00               	movlw	0
  6057  002AE6  6E3F               	movwf	(RTC_Read@cnt+1)^0,c
  6058  002AE8  0E00               	movlw	0
  6059  002AEA  6E3E               	movwf	RTC_Read@cnt^0,c
  6060  002AEC  EFB0  F015         	goto	i2l3084
  6061  002AF0                     i2l178:
  6062  002AF0                     i2l3074:
  6063                           
  6064                           ;main.c: 275:             str[cnt - 7] = data;
  6065  002AF0  0E3A               	movlw	low (RTC_Read@str+65529)
  6066  002AF2  243E               	addwf	RTC_Read@cnt^0,w,c
  6067  002AF4  6ED9               	movwf	fsr2l,c
  6068  002AF6  0E00               	movlw	high (RTC_Read@str+65529)
  6069  002AF8  203F               	addwfc	(RTC_Read@cnt+1)^0,w,c
  6070  002AFA  6EDA               	movwf	fsr2h,c
  6071  002AFC  C03B  FFDF         	movff	RTC_Read@data,indf2
  6072  002B00  EF63  F015         	goto	i2l3066
  6073  002B04                     i2l3082:
  6074  002B04  C03E  F039         	movff	RTC_Read@cnt,??_RTC_Read
  6075  002B08  C03F  F03A         	movff	RTC_Read@cnt+1,??_RTC_Read+1
  6076                           
  6077                           ; Switch on 2 bytes has been partitioned into a top level switch of size 1, and 1 sub-sw
      +                          itches
  6078                           ; Switch size 1, requested type "simple"
  6079                           ; Number of cases is 1, Range of values is 0 to 0
  6080                           ; switch strategies available:
  6081                           ; Name         Instructions Cycles
  6082                           ; simple_byte            4     3 (average)
  6083                           ;	Chosen strategy is simple_byte
  6084  002B0C  503A               	movf	(??_RTC_Read+1)^0,w,c
  6085  002B0E  0A00               	xorlw	0	; case 0
  6086  002B10  B4D8               	btfsc	status,2,c
  6087  002B12  EF8D  F015         	goto	i2l3240
  6088  002B16  EF63  F015         	goto	i2l3066
  6089  002B1A                     i2l3240:
  6090                           
  6091                           ; Switch size 1, requested type "simple"
  6092                           ; Number of cases is 8, Range of values is 0 to 12
  6093                           ; switch strategies available:
  6094                           ; Name         Instructions Cycles
  6095                           ; simple_byte           25    13 (average)
  6096                           ;	Chosen strategy is simple_byte
  6097  002B1A  5039               	movf	??_RTC_Read^0,w,c
  6098  002B1C  0A00               	xorlw	0	; case 0
  6099  002B1E  B4D8               	btfsc	status,2,c
  6100  002B20  EF4C  F015         	goto	i2l3062
  6101  002B24  0A03               	xorlw	3	; case 3
  6102  002B26  B4D8               	btfsc	status,2,c
  6103  002B28  EF67  F015         	goto	i2l3068
  6104  002B2C  0A04               	xorlw	4	; case 7
  6105  002B2E  B4D8               	btfsc	status,2,c
  6106  002B30  EF78  F015         	goto	i2l178
  6107  002B34  0A0F               	xorlw	15	; case 8
  6108  002B36  B4D8               	btfsc	status,2,c
  6109  002B38  EF78  F015         	goto	i2l3074
  6110  002B3C  0A01               	xorlw	1	; case 9
  6111  002B3E  B4D8               	btfsc	status,2,c
  6112  002B40  EF78  F015         	goto	i2l3074
  6113  002B44  0A03               	xorlw	3	; case 10
  6114  002B46  B4D8               	btfsc	status,2,c
  6115  002B48  EF78  F015         	goto	i2l3074
  6116  002B4C  0A01               	xorlw	1	; case 11
  6117  002B4E  B4D8               	btfsc	status,2,c
  6118  002B50  EF78  F015         	goto	i2l3074
  6119  002B54  0A07               	xorlw	7	; case 12
  6120  002B56  B4D8               	btfsc	status,2,c
  6121  002B58  EF78  F015         	goto	i2l3074
  6122  002B5C  EF63  F015         	goto	i2l3066
  6123  002B60                     i2l3084:
  6124                           
  6125                           ;main.c: 285:     if (cnt >= 13) {
  6126  002B60  BE3F               	btfsc	(RTC_Read@cnt+1)^0,7,c
  6127  002B62  EFBC  F015         	goto	i2u336_41
  6128  002B66  503F               	movf	(RTC_Read@cnt+1)^0,w,c
  6129  002B68  E109               	bnz	i2u336_40
  6130  002B6A  0E0D               	movlw	13
  6131  002B6C  5C3E               	subwf	RTC_Read@cnt^0,w,c
  6132  002B6E  A0D8               	btfss	status,0,c
  6133  002B70  EFBC  F015         	goto	i2u336_41
  6134  002B74  EFBE  F015         	goto	i2u336_40
  6135  002B78                     i2u336_41:
  6136  002B78  EFDA  F015         	goto	i2l183
  6137  002B7C                     i2u336_40:
  6138  002B7C                     
  6139                           ;main.c: 286:         g_time = Convert_data(atol(str));
  6140  002B7C  0E41               	movlw	low RTC_Read@str
  6141  002B7E  6E0D               	movwf	atol@s^0,c
  6142  002B80  0E00               	movlw	high RTC_Read@str
  6143  002B82  6E0E               	movwf	(atol@s+1)^0,c
  6144  002B84  ECFE  F011         	call	_atol	;wreg free
  6145  002B88  C00D  F021         	movff	?_atol,Convert_data@data
  6146  002B8C  C00E  F022         	movff	?_atol+1,Convert_data@data+1
  6147  002B90  C00F  F023         	movff	?_atol+2,Convert_data@data+2
  6148  002B94  C010  F024         	movff	?_atol+3,Convert_data@data+3
  6149  002B98  EC4B  F00F         	call	_Convert_data	;wreg free
  6150  002B9C  C021  F0BE         	movff	?_Convert_data,_g_time
  6151  002BA0  C022  F0BF         	movff	?_Convert_data+1,_g_time+1
  6152  002BA4  C023  F0C0         	movff	?_Convert_data+2,_g_time+2
  6153  002BA8  C024  F0C1         	movff	?_Convert_data+3,_g_time+3
  6154  002BAC                     
  6155                           ;main.c: 287:         cnt = 0;
  6156  002BAC  0E00               	movlw	0
  6157  002BAE  6E3F               	movwf	(RTC_Read@cnt+1)^0,c
  6158  002BB0  0E00               	movlw	0
  6159  002BB2  6E3E               	movwf	RTC_Read@cnt^0,c
  6160  002BB4                     i2l183:
  6161  002BB4  0012               	return		;funcret
  6162  002BB6                     __end_of_RTC_Read:
  6163                           	callstack 0
  6164                           
  6165 ;; *************** function _memset *****************
  6166 ;; Defined at:
  6167 ;;		line 4 in file "C:\Program Files\Microchip\xc8\v2.32\pic\sources\c99\common\memset.c"
  6168 ;; Parameters:    Size  Location     Type
  6169 ;;  dest            2    0[COMRAM] PTR void 
  6170 ;;		 -> RTC_Read@str(10), 
  6171 ;;  c               2    2[COMRAM] int 
  6172 ;;  n               2    4[COMRAM] unsigned int 
  6173 ;; Auto vars:     Size  Location     Type
  6174 ;;  s               2   10[COMRAM] PTR unsigned char 
  6175 ;;		 -> RTC_Read@str(10), 
  6176 ;;  k               2    8[COMRAM] unsigned int 
  6177 ;; Return value:  Size  Location     Type
  6178 ;;                  2    0[COMRAM] PTR void 
  6179 ;; Registers used:
  6180 ;;		wreg, fsr2l, fsr2h, status,2, status,0
  6181 ;; Tracked objects:
  6182 ;;		On entry : 0/0
  6183 ;;		On exit  : 0/0
  6184 ;;		Unchanged: 0/0
  6185 ;; Data sizes:     COMRAM   BANK0   BANK1   BANK2   BANK3   BANK4   BANK5   BANK6   BANK7   BANK8   BANK9  BANK10  BANK1
      +1  BANK12  BANK13  BANK14
  6186 ;;      Params:         6       0       0       0       0       0       0       0       0       0       0       0       
      +0       0       0       0
  6187 ;;      Locals:         4       0       0       0       0       0       0       0       0       0       0       0       
      +0       0       0       0
  6188 ;;      Temps:          2       0       0       0       0       0       0       0       0       0       0       0       
      +0       0       0       0
  6189 ;;      Totals:        12       0       0       0       0       0       0       0       0       0       0       0       
      +0       0       0       0
  6190 ;;Total ram usage:       12 bytes
  6191 ;; Hardware stack levels used: 1
  6192 ;; This function calls:
  6193 ;;		Nothing
  6194 ;; This function is called by:
  6195 ;;		_RTC_Read
  6196 ;; This function uses a non-reentrant model
  6197 ;;
  6198                           
  6199                           	psect	text23
  6200  00291C                     __ptext23:
  6201                           	callstack 0
  6202  00291C                     _memset:
  6203                           	callstack 25
  6204  00291C  C001  F00B         	movff	memset@dest,memset@s
  6205  002920  C002  F00C         	movff	memset@dest+1,memset@s+1
  6206  002924  5005               	movf	memset@n^0,w,c
  6207  002926  1006               	iorwf	(memset@n+1)^0,w,c
  6208  002928  A4D8               	btfss	status,2,c
  6209  00292A  EF99  F014         	goto	i2u297_41
  6210  00292E  EF9B  F014         	goto	i2u297_40
  6211  002932                     i2u297_41:
  6212  002932  EF9D  F014         	goto	i2l2808
  6213  002936                     i2u297_40:
  6214  002936  EF48  F015         	goto	i2l984
  6215  00293A                     i2l2808:
  6216  00293A  C00B  FFD9         	movff	memset@s,fsr2l
  6217  00293E  C00C  FFDA         	movff	memset@s+1,fsr2h
  6218  002942  C003  FFDF         	movff	memset@c,indf2
  6219  002946  5005               	movf	memset@n^0,w,c
  6220  002948  240B               	addwf	memset@s^0,w,c
  6221  00294A  6E07               	movwf	??_memset^0,c
  6222  00294C  5006               	movf	(memset@n+1)^0,w,c
  6223  00294E  200C               	addwfc	(memset@s+1)^0,w,c
  6224  002950  6E08               	movwf	(??_memset+1)^0,c
  6225  002952  0EFF               	movlw	255
  6226  002954  2407               	addwf	??_memset^0,w,c
  6227  002956  6ED9               	movwf	fsr2l,c
  6228  002958  0EFF               	movlw	255
  6229  00295A  2008               	addwfc	(??_memset+1)^0,w,c
  6230  00295C  6EDA               	movwf	fsr2h,c
  6231  00295E  C003  FFDF         	movff	memset@c,indf2
  6232  002962  5006               	movf	(memset@n+1)^0,w,c
  6233  002964  E107               	bnz	i2u298_41
  6234  002966  0E03               	movlw	3
  6235  002968  5C05               	subwf	memset@n^0,w,c
  6236  00296A  B0D8               	btfsc	status,0,c
  6237  00296C  EFBA  F014         	goto	i2u298_41
  6238  002970  EFBC  F014         	goto	i2u298_40
  6239  002974                     i2u298_41:
  6240  002974  EFBE  F014         	goto	i2l2814
  6241  002978                     i2u298_40:
  6242  002978  EF48  F015         	goto	i2l984
  6243  00297C                     i2l2814:
  6244  00297C  EE20 F001          	lfsr	2,1
  6245  002980  500B               	movf	memset@s^0,w,c
  6246  002982  26D9               	addwf	fsr2l,f,c
  6247  002984  500C               	movf	(memset@s+1)^0,w,c
  6248  002986  22DA               	addwfc	fsr2h,f,c
  6249  002988  C003  FFDF         	movff	memset@c,indf2
  6250  00298C  EE20 F002          	lfsr	2,2
  6251  002990  500B               	movf	memset@s^0,w,c
  6252  002992  26D9               	addwf	fsr2l,f,c
  6253  002994  500C               	movf	(memset@s+1)^0,w,c
  6254  002996  22DA               	addwfc	fsr2h,f,c
  6255  002998  C003  FFDF         	movff	memset@c,indf2
  6256  00299C  5005               	movf	memset@n^0,w,c
  6257  00299E  240B               	addwf	memset@s^0,w,c
  6258  0029A0  6E07               	movwf	??_memset^0,c
  6259  0029A2  5006               	movf	(memset@n+1)^0,w,c
  6260  0029A4  200C               	addwfc	(memset@s+1)^0,w,c
  6261  0029A6  6E08               	movwf	(??_memset+1)^0,c
  6262  0029A8  0EFE               	movlw	254
  6263  0029AA  2407               	addwf	??_memset^0,w,c
  6264  0029AC  6ED9               	movwf	fsr2l,c
  6265  0029AE  0EFF               	movlw	255
  6266  0029B0  2008               	addwfc	(??_memset+1)^0,w,c
  6267  0029B2  6EDA               	movwf	fsr2h,c
  6268  0029B4  C003  FFDF         	movff	memset@c,indf2
  6269  0029B8  5005               	movf	memset@n^0,w,c
  6270  0029BA  240B               	addwf	memset@s^0,w,c
  6271  0029BC  6E07               	movwf	??_memset^0,c
  6272  0029BE  5006               	movf	(memset@n+1)^0,w,c
  6273  0029C0  200C               	addwfc	(memset@s+1)^0,w,c
  6274  0029C2  6E08               	movwf	(??_memset+1)^0,c
  6275  0029C4  0EFD               	movlw	253
  6276  0029C6  2407               	addwf	??_memset^0,w,c
  6277  0029C8  6ED9               	movwf	fsr2l,c
  6278  0029CA  0EFF               	movlw	255
  6279  0029CC  2008               	addwfc	(??_memset+1)^0,w,c
  6280  0029CE  6EDA               	movwf	fsr2h,c
  6281  0029D0  C003  FFDF         	movff	memset@c,indf2
  6282  0029D4  5006               	movf	(memset@n+1)^0,w,c
  6283  0029D6  E107               	bnz	i2u299_41
  6284  0029D8  0E07               	movlw	7
  6285  0029DA  5C05               	subwf	memset@n^0,w,c
  6286  0029DC  B0D8               	btfsc	status,0,c
  6287  0029DE  EFF3  F014         	goto	i2u299_41
  6288  0029E2  EFF5  F014         	goto	i2u299_40
  6289  0029E6                     i2u299_41:
  6290  0029E6  EFF7  F014         	goto	i2l2820
  6291  0029EA                     i2u299_40:
  6292  0029EA  EF48  F015         	goto	i2l984
  6293  0029EE                     i2l2820:
  6294  0029EE  EE20 F003          	lfsr	2,3
  6295  0029F2  500B               	movf	memset@s^0,w,c
  6296  0029F4  26D9               	addwf	fsr2l,f,c
  6297  0029F6  500C               	movf	(memset@s+1)^0,w,c
  6298  0029F8  22DA               	addwfc	fsr2h,f,c
  6299  0029FA  C003  FFDF         	movff	memset@c,indf2
  6300  0029FE  5005               	movf	memset@n^0,w,c
  6301  002A00  240B               	addwf	memset@s^0,w,c
  6302  002A02  6E07               	movwf	??_memset^0,c
  6303  002A04  5006               	movf	(memset@n+1)^0,w,c
  6304  002A06  200C               	addwfc	(memset@s+1)^0,w,c
  6305  002A08  6E08               	movwf	(??_memset+1)^0,c
  6306  002A0A  0EFC               	movlw	252
  6307  002A0C  2407               	addwf	??_memset^0,w,c
  6308  002A0E  6ED9               	movwf	fsr2l,c
  6309  002A10  0EFF               	movlw	255
  6310  002A12  2008               	addwfc	(??_memset+1)^0,w,c
  6311  002A14  6EDA               	movwf	fsr2h,c
  6312  002A16  C003  FFDF         	movff	memset@c,indf2
  6313  002A1A  5006               	movf	(memset@n+1)^0,w,c
  6314  002A1C  E107               	bnz	i2u300_41
  6315  002A1E  0E09               	movlw	9
  6316  002A20  5C05               	subwf	memset@n^0,w,c
  6317  002A22  B0D8               	btfsc	status,0,c
  6318  002A24  EF16  F015         	goto	i2u300_41
  6319  002A28  EF18  F015         	goto	i2u300_40
  6320  002A2C                     i2u300_41:
  6321  002A2C  EF1A  F015         	goto	i2l2826
  6322  002A30                     i2u300_40:
  6323  002A30  EF48  F015         	goto	i2l984
  6324  002A34                     i2l2826:
  6325  002A34  C00B  F007         	movff	memset@s,??_memset
  6326  002A38  C00C  F008         	movff	memset@s+1,??_memset+1
  6327  002A3C  1E07               	comf	??_memset^0,f,c
  6328  002A3E  1E08               	comf	(??_memset+1)^0,f,c
  6329  002A40  4A07               	infsnz	??_memset^0,f,c
  6330  002A42  2A08               	incf	(??_memset+1)^0,f,c
  6331  002A44  0E03               	movlw	3
  6332  002A46  1407               	andwf	??_memset^0,w,c
  6333  002A48  6E09               	movwf	memset@k^0,c
  6334  002A4A  6A0A               	clrf	(memset@k+1)^0,c
  6335  002A4C  5009               	movf	memset@k^0,w,c
  6336  002A4E  260B               	addwf	memset@s^0,f,c
  6337  002A50  500A               	movf	(memset@k+1)^0,w,c
  6338  002A52  220C               	addwfc	(memset@s+1)^0,f,c
  6339  002A54  5009               	movf	memset@k^0,w,c
  6340  002A56  5E05               	subwf	memset@n^0,f,c
  6341  002A58  500A               	movf	(memset@k+1)^0,w,c
  6342  002A5A  5A06               	subwfb	(memset@n+1)^0,f,c
  6343  002A5C  0EFC               	movlw	252
  6344  002A5E  1605               	andwf	memset@n^0,f,c
  6345  002A60  0EFF               	movlw	255
  6346  002A62  1606               	andwf	(memset@n+1)^0,f,c
  6347  002A64  EF3F  F015         	goto	i2l2834
  6348  002A68                     i2l2828:
  6349  002A68  C00B  FFD9         	movff	memset@s,fsr2l
  6350  002A6C  C00C  FFDA         	movff	memset@s+1,fsr2h
  6351  002A70  C003  FFDF         	movff	memset@c,indf2
  6352  002A74  0605               	decf	memset@n^0,f,c
  6353  002A76  A0D8               	btfss	status,0,c
  6354  002A78  0606               	decf	(memset@n+1)^0,f,c
  6355  002A7A  4A0B               	infsnz	memset@s^0,f,c
  6356  002A7C  2A0C               	incf	(memset@s+1)^0,f,c
  6357  002A7E                     i2l2834:
  6358  002A7E  5005               	movf	memset@n^0,w,c
  6359  002A80  1006               	iorwf	(memset@n+1)^0,w,c
  6360  002A82  A4D8               	btfss	status,2,c
  6361  002A84  EF46  F015         	goto	i2u301_41
  6362  002A88  EF48  F015         	goto	i2u301_40
  6363  002A8C                     i2u301_41:
  6364  002A8C  EF34  F015         	goto	i2l2828
  6365  002A90                     i2u301_40:
  6366  002A90                     i2l984:
  6367  002A90  0012               	return		;funcret
  6368  002A92                     __end_of_memset:
  6369                           	callstack 0
  6370                           
  6371 ;; *************** function _atol *****************
  6372 ;; Defined at:
  6373 ;;		line 4 in file "C:\Program Files\Microchip\xc8\v2.32\pic\sources\c99\common\atol.c"
  6374 ;; Parameters:    Size  Location     Type
  6375 ;;  s               2   12[COMRAM] PTR const unsigned char 
  6376 ;;		 -> RTC_Read@str(10), 
  6377 ;; Auto vars:     Size  Location     Type
  6378 ;;  n               4   28[COMRAM] long 
  6379 ;;  neg             2   21[COMRAM] int 
  6380 ;; Return value:  Size  Location     Type
  6381 ;;                  4   12[COMRAM] long 
  6382 ;; Registers used:
  6383 ;;		wreg, fsr2l, fsr2h, status,2, status,0, cstack
  6384 ;; Tracked objects:
  6385 ;;		On entry : 0/0
  6386 ;;		On exit  : 0/0
  6387 ;;		Unchanged: 0/0
  6388 ;; Data sizes:     COMRAM   BANK0   BANK1   BANK2   BANK3   BANK4   BANK5   BANK6   BANK7   BANK8   BANK9  BANK10  BANK1
      +1  BANK12  BANK13  BANK14
  6389 ;;      Params:         4       0       0       0       0       0       0       0       0       0       0       0       
      +0       0       0       0
  6390 ;;      Locals:        11       0       0       0       0       0       0       0       0       0       0       0       
      +0       0       0       0
  6391 ;;      Temps:          5       0       0       0       0       0       0       0       0       0       0       0       
      +0       0       0       0
  6392 ;;      Totals:        20       0       0       0       0       0       0       0       0       0       0       0       
      +0       0       0       0
  6393 ;;Total ram usage:       20 bytes
  6394 ;; Hardware stack levels used: 1
  6395 ;; Hardware stack levels required when called: 1
  6396 ;; This function calls:
  6397 ;;		_isdigit
  6398 ;;		_isspace
  6399 ;;		i2___lmul
  6400 ;; This function is called by:
  6401 ;;		_RTC_Read
  6402 ;; This function uses a non-reentrant model
  6403 ;;
  6404                           
  6405                           	psect	text24
  6406  0023FC                     __ptext24:
  6407                           	callstack 0
  6408  0023FC                     _atol:
  6409                           	callstack 24
  6410  0023FC  0E00               	movlw	0
  6411  0023FE  6E1D               	movwf	atol@n^0,c
  6412  002400  0E00               	movlw	0
  6413  002402  6E1E               	movwf	(atol@n+1)^0,c
  6414  002404  0E00               	movlw	0
  6415  002406  6E1F               	movwf	(atol@n+2)^0,c
  6416  002408  0E00               	movlw	0
  6417  00240A  6E20               	movwf	(atol@n+3)^0,c
  6418  00240C  0E00               	movlw	0
  6419  00240E  6E17               	movwf	(atol@neg+1)^0,c
  6420  002410  0E00               	movlw	0
  6421  002412  6E16               	movwf	atol@neg^0,c
  6422  002414  EF0E  F012         	goto	i2l2840
  6423  002418                     i2l2838:
  6424  002418  4A0D               	infsnz	atol@s^0,f,c
  6425  00241A  2A0E               	incf	(atol@s+1)^0,f,c
  6426  00241C                     i2l2840:
  6427  00241C  0E01               	movlw	1
  6428  00241E  6E1C               	movwf	_atol$784^0,c
  6429  002420  C00D  FFD9         	movff	atol@s,fsr2l
  6430  002424  C00E  FFDA         	movff	atol@s+1,fsr2h
  6431  002428  0E20               	movlw	32
  6432  00242A  18DE               	xorwf	postinc2,w,c
  6433  00242C  B4D8               	btfsc	status,2,c
  6434  00242E  EF1B  F012         	goto	i2u302_41
  6435  002432  EF1D  F012         	goto	i2u302_40
  6436  002436                     i2u302_41:
  6437  002436  EF39  F012         	goto	i2l2848
  6438  00243A                     i2u302_40:
  6439  00243A  0EF7               	movlw	247
  6440  00243C  6E11               	movwf	??_atol^0,c
  6441  00243E  0EFF               	movlw	255
  6442  002440  6E12               	movwf	(??_atol+1)^0,c
  6443  002442  C00D  FFD9         	movff	atol@s,fsr2l
  6444  002446  C00E  FFDA         	movff	atol@s+1,fsr2h
  6445  00244A  50DF               	movf	indf2,w,c
  6446  00244C  6E13               	movwf	(??_atol+2)^0,c
  6447  00244E  6A14               	clrf	(??_atol+3)^0,c
  6448  002450  5011               	movf	??_atol^0,w,c
  6449  002452  2613               	addwf	(??_atol+2)^0,f,c
  6450  002454  5012               	movf	(??_atol+1)^0,w,c
  6451  002456  2214               	addwfc	(??_atol+3)^0,f,c
  6452  002458  5014               	movf	(??_atol+3)^0,w,c
  6453  00245A  E109               	bnz	i2u303_40
  6454  00245C  0E05               	movlw	5
  6455  00245E  5C13               	subwf	(??_atol+2)^0,w,c
  6456  002460  A0D8               	btfss	status,0,c
  6457  002462  EF35  F012         	goto	i2u303_41
  6458  002466  EF37  F012         	goto	i2u303_40
  6459  00246A                     i2u303_41:
  6460  00246A  EF39  F012         	goto	i2l2848
  6461  00246E                     i2u303_40:
  6462  00246E  0E00               	movlw	0
  6463  002470  6E1C               	movwf	_atol$784^0,c
  6464  002472                     i2l2848:
  6465  002472  C01C  F018         	movff	_atol$784,_atol$783
  6466  002476  6A19               	clrf	(_atol$783+1)^0,c
  6467  002478  5018               	movf	_atol$783^0,w,c
  6468  00247A  1019               	iorwf	(_atol$783+1)^0,w,c
  6469  00247C  A4D8               	btfss	status,2,c
  6470  00247E  EF43  F012         	goto	i2u304_41
  6471  002482  EF45  F012         	goto	i2u304_40
  6472  002486                     i2u304_41:
  6473  002486  EF0C  F012         	goto	i2l2838
  6474  00248A                     i2u304_40:
  6475  00248A  EF4F  F012         	goto	i2l2858
  6476  00248E                     i2l2854:
  6477  00248E  0E00               	movlw	0
  6478  002490  6E17               	movwf	(atol@neg+1)^0,c
  6479  002492  0E01               	movlw	1
  6480  002494  6E16               	movwf	atol@neg^0,c
  6481  002496                     i2l2856:
  6482  002496  4A0D               	infsnz	atol@s^0,f,c
  6483  002498  2A0E               	incf	(atol@s+1)^0,f,c
  6484  00249A  EF96  F012         	goto	i2l2864
  6485  00249E                     i2l2858:
  6486  00249E  C00D  FFD9         	movff	atol@s,fsr2l
  6487  0024A2  C00E  FFDA         	movff	atol@s+1,fsr2h
  6488  0024A6  50DF               	movf	indf2,w,c
  6489  0024A8  6E11               	movwf	??_atol^0,c
  6490  0024AA  6A12               	clrf	(??_atol+1)^0,c
  6491                           
  6492                           ; Switch on 2 bytes has been partitioned into a top level switch of size 1, and 1 sub-sw
      +                          itches
  6493                           ; Switch size 1, requested type "simple"
  6494                           ; Number of cases is 1, Range of values is 0 to 0
  6495                           ; switch strategies available:
  6496                           ; Name         Instructions Cycles
  6497                           ; simple_byte            4     3 (average)
  6498                           ;	Chosen strategy is simple_byte
  6499  0024AC  5012               	movf	(??_atol+1)^0,w,c
  6500  0024AE  0A00               	xorlw	0	; case 0
  6501  0024B0  B4D8               	btfsc	status,2,c
  6502  0024B2  EF5D  F012         	goto	i2l3242
  6503  0024B6  EF96  F012         	goto	i2l2864
  6504  0024BA                     i2l3242:
  6505                           
  6506                           ; Switch size 1, requested type "simple"
  6507                           ; Number of cases is 2, Range of values is 43 to 45
  6508                           ; switch strategies available:
  6509                           ; Name         Instructions Cycles
  6510                           ; simple_byte            7     4 (average)
  6511                           ;	Chosen strategy is simple_byte
  6512  0024BA  5011               	movf	??_atol^0,w,c
  6513  0024BC  0A2B               	xorlw	43	; case 43
  6514  0024BE  B4D8               	btfsc	status,2,c
  6515  0024C0  EF4B  F012         	goto	i2l2856
  6516  0024C4  0A06               	xorlw	6	; case 45
  6517  0024C6  B4D8               	btfsc	status,2,c
  6518  0024C8  EF47  F012         	goto	i2l2854
  6519  0024CC  EF96  F012         	goto	i2l2864
  6520  0024D0                     i2l2860:
  6521  0024D0  C00D  FFD9         	movff	atol@s,fsr2l
  6522  0024D4  C00E  FFDA         	movff	atol@s+1,fsr2h
  6523  0024D8  50DF               	movf	indf2,w,c
  6524  0024DA  6E11               	movwf	??_atol^0,c
  6525  0024DC  0ED0               	movlw	208
  6526  0024DE  2411               	addwf	??_atol^0,w,c
  6527  0024E0  6E12               	movwf	(??_atol+1)^0,c
  6528  0024E2  6A13               	clrf	(??_atol+2)^0,c
  6529  0024E4  0EFF               	movlw	255
  6530  0024E6  2213               	addwfc	(??_atol+2)^0,f,c
  6531  0024E8  6A14               	clrf	(??_atol+3)^0,c
  6532  0024EA  6A15               	clrf	(??_atol+4)^0,c
  6533  0024EC  C01D  F001         	movff	atol@n,i2___lmul@multiplier
  6534  0024F0  C01E  F002         	movff	atol@n+1,i2___lmul@multiplier+1
  6535  0024F4  C01F  F003         	movff	atol@n+2,i2___lmul@multiplier+2
  6536  0024F8  C020  F004         	movff	atol@n+3,i2___lmul@multiplier+3
  6537  0024FC  0E0A               	movlw	10
  6538  0024FE  6E05               	movwf	i2___lmul@multiplicand^0,c
  6539  002500  0E00               	movlw	0
  6540  002502  6E06               	movwf	(i2___lmul@multiplicand+1)^0,c
  6541  002504  0E00               	movlw	0
  6542  002506  6E07               	movwf	(i2___lmul@multiplicand+2)^0,c
  6543  002508  0E00               	movlw	0
  6544  00250A  6E08               	movwf	(i2___lmul@multiplicand+3)^0,c
  6545  00250C  ECF0  F019         	call	i2___lmul	;wreg free
  6546  002510  5012               	movf	(??_atol+1)^0,w,c
  6547  002512  5C01               	subwf	?i2___lmul^0,w,c
  6548  002514  6E1D               	movwf	atol@n^0,c
  6549  002516  5013               	movf	(??_atol+2)^0,w,c
  6550  002518  5802               	subwfb	(?i2___lmul+1)^0,w,c
  6551  00251A  6E1E               	movwf	(atol@n+1)^0,c
  6552  00251C  5014               	movf	(??_atol+3)^0,w,c
  6553  00251E  5803               	subwfb	(?i2___lmul+2)^0,w,c
  6554  002520  6E1F               	movwf	(atol@n+2)^0,c
  6555  002522  5015               	movf	(??_atol+4)^0,w,c
  6556  002524  5804               	subwfb	(?i2___lmul+3)^0,w,c
  6557  002526  6E20               	movwf	(atol@n+3)^0,c
  6558  002528  EF4B  F012         	goto	i2l2856
  6559  00252C                     i2l2864:
  6560  00252C  0ED0               	movlw	208
  6561  00252E  6E11               	movwf	??_atol^0,c
  6562  002530  0EFF               	movlw	255
  6563  002532  6E12               	movwf	(??_atol+1)^0,c
  6564  002534  C00D  FFD9         	movff	atol@s,fsr2l
  6565  002538  C00E  FFDA         	movff	atol@s+1,fsr2h
  6566  00253C  50DF               	movf	indf2,w,c
  6567  00253E  6E13               	movwf	(??_atol+2)^0,c
  6568  002540  6A14               	clrf	(??_atol+3)^0,c
  6569  002542  5011               	movf	??_atol^0,w,c
  6570  002544  2613               	addwf	(??_atol+2)^0,f,c
  6571  002546  5012               	movf	(??_atol+1)^0,w,c
  6572  002548  2214               	addwfc	(??_atol+3)^0,f,c
  6573  00254A  5014               	movf	(??_atol+3)^0,w,c
  6574  00254C  E10A               	bnz	i2u305_40
  6575  00254E  0E0A               	movlw	10
  6576  002550  5C13               	subwf	(??_atol+2)^0,w,c
  6577  002552  A0D8               	btfss	status,0,c
  6578  002554  EFAE  F012         	goto	i2u305_41
  6579  002558  EFB1  F012         	goto	i2u305_40
  6580  00255C                     i2u305_41:
  6581  00255C  0E01               	movlw	1
  6582  00255E  EFB2  F012         	goto	i2u306_40
  6583  002562                     i2u305_40:
  6584  002562  0E00               	movlw	0
  6585  002564                     i2u306_40:
  6586  002564  6E1A               	movwf	_atol$785^0,c
  6587  002566  6A1B               	clrf	(_atol$785+1)^0,c
  6588  002568  501A               	movf	_atol$785^0,w,c
  6589  00256A  101B               	iorwf	(_atol$785+1)^0,w,c
  6590  00256C  A4D8               	btfss	status,2,c
  6591  00256E  EFBB  F012         	goto	i2u307_41
  6592  002572  EFBD  F012         	goto	i2u307_40
  6593  002576                     i2u307_41:
  6594  002576  EF68  F012         	goto	i2l2860
  6595  00257A                     i2u307_40:
  6596  00257A  5016               	movf	atol@neg^0,w,c
  6597  00257C  1017               	iorwf	(atol@neg+1)^0,w,c
  6598  00257E  A4D8               	btfss	status,2,c
  6599  002580  EFC4  F012         	goto	i2u308_41
  6600  002584  EFC6  F012         	goto	i2u308_40
  6601  002588                     i2u308_41:
  6602  002588  EFE1  F012         	goto	i2l963
  6603  00258C                     i2u308_40:
  6604  00258C  C01D  F011         	movff	atol@n,??_atol
  6605  002590  C01E  F012         	movff	atol@n+1,??_atol+1
  6606  002594  C01F  F013         	movff	atol@n+2,??_atol+2
  6607  002598  C020  F014         	movff	atol@n+3,??_atol+3
  6608  00259C  1E11               	comf	??_atol^0,f,c
  6609  00259E  1E12               	comf	(??_atol+1)^0,f,c
  6610  0025A0  1E13               	comf	(??_atol+2)^0,f,c
  6611  0025A2  1E14               	comf	(??_atol+3)^0,f,c
  6612  0025A4  2A11               	incf	??_atol^0,f,c
  6613  0025A6  0E00               	movlw	0
  6614  0025A8  2212               	addwfc	(??_atol+1)^0,f,c
  6615  0025AA  2213               	addwfc	(??_atol+2)^0,f,c
  6616  0025AC  2214               	addwfc	(??_atol+3)^0,f,c
  6617  0025AE  C011  F00D         	movff	??_atol,?_atol
  6618  0025B2  C012  F00E         	movff	??_atol+1,?_atol+1
  6619  0025B6  C013  F00F         	movff	??_atol+2,?_atol+2
  6620  0025BA  C014  F010         	movff	??_atol+3,?_atol+3
  6621  0025BE  EFE9  F012         	goto	i2l966
  6622  0025C2                     i2l963:
  6623  0025C2  C01D  F00D         	movff	atol@n,?_atol
  6624  0025C6  C01E  F00E         	movff	atol@n+1,?_atol+1
  6625  0025CA  C01F  F00F         	movff	atol@n+2,?_atol+2
  6626  0025CE  C020  F010         	movff	atol@n+3,?_atol+3
  6627  0025D2                     i2l966:
  6628  0025D2  0012               	return		;funcret
  6629  0025D4                     __end_of_atol:
  6630                           	callstack 0
  6631                           
  6632 ;; *************** function _isspace *****************
  6633 ;; Defined at:
  6634 ;;		line 5 in file "C:\Program Files\Microchip\xc8\v2.32\pic\sources\c99\common\isspace.c"
  6635 ;; Parameters:    Size  Location     Type
  6636 ;;  c               2    0[COMRAM] int 
  6637 ;; Auto vars:     Size  Location     Type
  6638 ;;		None
  6639 ;; Return value:  Size  Location     Type
  6640 ;;                  2    0[COMRAM] int 
  6641 ;; Registers used:
  6642 ;;		wreg, status,2, status,0
  6643 ;; Tracked objects:
  6644 ;;		On entry : 0/0
  6645 ;;		On exit  : 0/0
  6646 ;;		Unchanged: 0/0
  6647 ;; Data sizes:     COMRAM   BANK0   BANK1   BANK2   BANK3   BANK4   BANK5   BANK6   BANK7   BANK8   BANK9  BANK10  BANK1
      +1  BANK12  BANK13  BANK14
  6648 ;;      Params:         2       0       0       0       0       0       0       0       0       0       0       0       
      +0       0       0       0
  6649 ;;      Locals:         1       0       0       0       0       0       0       0       0       0       0       0       
      +0       0       0       0
  6650 ;;      Temps:          4       0       0       0       0       0       0       0       0       0       0       0       
      +0       0       0       0
  6651 ;;      Totals:         7       0       0       0       0       0       0       0       0       0       0       0       
      +0       0       0       0
  6652 ;;Total ram usage:        7 bytes
  6653 ;; Hardware stack levels used: 1
  6654 ;; This function calls:
  6655 ;;		Nothing
  6656 ;; This function is called by:
  6657 ;;		_atol
  6658 ;; This function uses a non-reentrant model
  6659 ;;
  6660                           
  6661                           	psect	text25
  6662  00344A                     __ptext25:
  6663                           	callstack 0
  6664  00344A                     _isspace:
  6665                           	callstack 24
  6666  00344A  0E01               	movlw	1
  6667  00344C  6E07               	movwf	_isspace$801^0,c
  6668  00344E  0E20               	movlw	32
  6669  003450  1801               	xorwf	isspace@c^0,w,c
  6670  003452  1002               	iorwf	(isspace@c+1)^0,w,c
  6671  003454  B4D8               	btfsc	status,2,c
  6672  003456  EF2F  F01A         	goto	i2u281_41
  6673  00345A  EF31  F01A         	goto	i2u281_40
  6674  00345E                     i2u281_41:
  6675  00345E  EF4A  F01A         	goto	i2l2708
  6676  003462                     i2u281_40:
  6677  003462  0EF7               	movlw	247
  6678  003464  6E03               	movwf	??_isspace^0,c
  6679  003466  0EFF               	movlw	255
  6680  003468  6E04               	movwf	(??_isspace+1)^0,c
  6681  00346A  C001  F005         	movff	isspace@c,??_isspace+2
  6682  00346E  C002  F006         	movff	isspace@c+1,??_isspace+3
  6683  003472  5003               	movf	??_isspace^0,w,c
  6684  003474  2605               	addwf	(??_isspace+2)^0,f,c
  6685  003476  5004               	movf	(??_isspace+1)^0,w,c
  6686  003478  2206               	addwfc	(??_isspace+3)^0,f,c
  6687  00347A  5006               	movf	(??_isspace+3)^0,w,c
  6688  00347C  E109               	bnz	i2u282_40
  6689  00347E  0E05               	movlw	5
  6690  003480  5C05               	subwf	(??_isspace+2)^0,w,c
  6691  003482  A0D8               	btfss	status,0,c
  6692  003484  EF46  F01A         	goto	i2u282_41
  6693  003488  EF48  F01A         	goto	i2u282_40
  6694  00348C                     i2u282_41:
  6695  00348C  EF4A  F01A         	goto	i2l2708
  6696  003490                     i2u282_40:
  6697  003490  0E00               	movlw	0
  6698  003492  6E07               	movwf	_isspace$801^0,c
  6699  003494                     i2l2708:
  6700  003494  C007  F001         	movff	_isspace$801,?_isspace
  6701  003498  6A02               	clrf	(?_isspace+1)^0,c
  6702  00349A  0012               	return		;funcret
  6703  00349C                     __end_of_isspace:
  6704                           	callstack 0
  6705                           
  6706 ;; *************** function _isdigit *****************
  6707 ;; Defined at:
  6708 ;;		line 5 in file "C:\Program Files\Microchip\xc8\v2.32\pic\sources\c99\common\isdigit.c"
  6709 ;; Parameters:    Size  Location     Type
  6710 ;;  c               2    0[COMRAM] int 
  6711 ;; Auto vars:     Size  Location     Type
  6712 ;;		None
  6713 ;; Return value:  Size  Location     Type
  6714 ;;                  2    0[COMRAM] int 
  6715 ;; Registers used:
  6716 ;;		wreg, status,2, status,0
  6717 ;; Tracked objects:
  6718 ;;		On entry : 0/0
  6719 ;;		On exit  : 0/0
  6720 ;;		Unchanged: 0/0
  6721 ;; Data sizes:     COMRAM   BANK0   BANK1   BANK2   BANK3   BANK4   BANK5   BANK6   BANK7   BANK8   BANK9  BANK10  BANK1
      +1  BANK12  BANK13  BANK14
  6722 ;;      Params:         2       0       0       0       0       0       0       0       0       0       0       0       
      +0       0       0       0
  6723 ;;      Locals:         0       0       0       0       0       0       0       0       0       0       0       0       
      +0       0       0       0
  6724 ;;      Temps:          4       0       0       0       0       0       0       0       0       0       0       0       
      +0       0       0       0
  6725 ;;      Totals:         6       0       0       0       0       0       0       0       0       0       0       0       
      +0       0       0       0
  6726 ;;Total ram usage:        6 bytes
  6727 ;; Hardware stack levels used: 1
  6728 ;; This function calls:
  6729 ;;		Nothing
  6730 ;; This function is called by:
  6731 ;;		_atol
  6732 ;; This function uses a non-reentrant model
  6733 ;;
  6734                           
  6735                           	psect	text26
  6736  003534                     __ptext26:
  6737                           	callstack 0
  6738  003534                     _isdigit:
  6739                           	callstack 24
  6740  003534  0ED0               	movlw	208
  6741  003536  6E03               	movwf	??_isdigit^0,c
  6742  003538  0EFF               	movlw	255
  6743  00353A  6E04               	movwf	(??_isdigit+1)^0,c
  6744  00353C  C001  F005         	movff	isdigit@c,??_isdigit+2
  6745  003540  C002  F006         	movff	isdigit@c+1,??_isdigit+3
  6746  003544  5003               	movf	??_isdigit^0,w,c
  6747  003546  2605               	addwf	(??_isdigit+2)^0,f,c
  6748  003548  5004               	movf	(??_isdigit+1)^0,w,c
  6749  00354A  2206               	addwfc	(??_isdigit+3)^0,f,c
  6750  00354C  5006               	movf	(??_isdigit+3)^0,w,c
  6751  00354E  E10A               	bnz	i2u283_40
  6752  003550  0E0A               	movlw	10
  6753  003552  5C05               	subwf	(??_isdigit+2)^0,w,c
  6754  003554  A0D8               	btfss	status,0,c
  6755  003556  EFAF  F01A         	goto	i2u283_41
  6756  00355A  EFB2  F01A         	goto	i2u283_40
  6757  00355E                     i2u283_41:
  6758  00355E  0E01               	movlw	1
  6759  003560  EFB3  F01A         	goto	i2u284_40
  6760  003564                     i2u283_40:
  6761  003564  0E00               	movlw	0
  6762  003566                     i2u284_40:
  6763  003566  6E01               	movwf	?_isdigit^0,c
  6764  003568  6A02               	clrf	(?_isdigit+1)^0,c
  6765  00356A  0012               	return		;funcret
  6766  00356C                     __end_of_isdigit:
  6767                           	callstack 0
  6768                           
  6769 ;; *************** function _Convert_data *****************
  6770 ;; Defined at:
  6771 ;;		line 292 in file "main.c"
  6772 ;; Parameters:    Size  Location     Type
  6773 ;;  data            4   32[COMRAM] unsigned long 
  6774 ;; Auto vars:     Size  Location     Type
  6775 ;;  min             4   52[COMRAM] unsigned long 
  6776 ;;  hour            4   48[COMRAM] unsigned long 
  6777 ;;  sec             4   44[COMRAM] unsigned long 
  6778 ;; Return value:  Size  Location     Type
  6779 ;;                  4   32[COMRAM] unsigned long 
  6780 ;; Registers used:
  6781 ;;		wreg, status,2, status,0, cstack
  6782 ;; Tracked objects:
  6783 ;;		On entry : 0/0
  6784 ;;		On exit  : 0/0
  6785 ;;		Unchanged: 0/0
  6786 ;; Data sizes:     COMRAM   BANK0   BANK1   BANK2   BANK3   BANK4   BANK5   BANK6   BANK7   BANK8   BANK9  BANK10  BANK1
      +1  BANK12  BANK13  BANK14
  6787 ;;      Params:         4       0       0       0       0       0       0       0       0       0       0       0       
      +0       0       0       0
  6788 ;;      Locals:        12       0       0       0       0       0       0       0       0       0       0       0       
      +0       0       0       0
  6789 ;;      Temps:          8       0       0       0       0       0       0       0       0       0       0       0       
      +0       0       0       0
  6790 ;;      Totals:        24       0       0       0       0       0       0       0       0       0       0       0       
      +0       0       0       0
  6791 ;;Total ram usage:       24 bytes
  6792 ;; Hardware stack levels used: 1
  6793 ;; Hardware stack levels required when called: 1
  6794 ;; This function calls:
  6795 ;;		i2___lldiv
  6796 ;;		i2___llmod
  6797 ;;		i2___lmul
  6798 ;; This function is called by:
  6799 ;;		_RTC_Read
  6800 ;; This function uses a non-reentrant model
  6801 ;;
  6802                           
  6803                           	psect	text27
  6804  001E96                     __ptext27:
  6805                           	callstack 0
  6806  001E96                     _Convert_data:
  6807                           	callstack 24
  6808  001E96                     
  6809                           ;main.c: 292: uint32_t Convert_data(uint32_t data);main.c: 293: {;main.c: 294:     uint3
      +                          2_t hour;;main.c: 295:     uint32_t min;;main.c: 296:     uint32_t sec;;main.c: 298:    
      +                           hour = (data / 10000) % 100;
  6810  001E96  0E10               	movlw	16
  6811  001E98  6E05               	movwf	i2___lldiv@divisor^0,c
  6812  001E9A  0E27               	movlw	39
  6813  001E9C  6E06               	movwf	(i2___lldiv@divisor+1)^0,c
  6814  001E9E  0E00               	movlw	0
  6815  001EA0  6E07               	movwf	(i2___lldiv@divisor+2)^0,c
  6816  001EA2  0E00               	movlw	0
  6817  001EA4  6E08               	movwf	(i2___lldiv@divisor+3)^0,c
  6818  001EA6  C021  F001         	movff	Convert_data@data,i2___lldiv@dividend
  6819  001EAA  C022  F002         	movff	Convert_data@data+1,i2___lldiv@dividend+1
  6820  001EAE  C023  F003         	movff	Convert_data@data+2,i2___lldiv@dividend+2
  6821  001EB2  C024  F004         	movff	Convert_data@data+3,i2___lldiv@dividend+3
  6822  001EB6  EC36  F018         	call	i2___lldiv	;wreg free
  6823  001EBA  C001  F00E         	movff	?i2___lldiv,i2___llmod@dividend
  6824  001EBE  C002  F00F         	movff	?i2___lldiv+1,i2___llmod@dividend+1
  6825  001EC2  C003  F010         	movff	?i2___lldiv+2,i2___llmod@dividend+2
  6826  001EC6  C004  F011         	movff	?i2___lldiv+3,i2___llmod@dividend+3
  6827  001ECA  0E64               	movlw	100
  6828  001ECC  6E12               	movwf	i2___llmod@divisor^0,c
  6829  001ECE  0E00               	movlw	0
  6830  001ED0  6E13               	movwf	(i2___llmod@divisor+1)^0,c
  6831  001ED2  0E00               	movlw	0
  6832  001ED4  6E14               	movwf	(i2___llmod@divisor+2)^0,c
  6833  001ED6  0E00               	movlw	0
  6834  001ED8  6E15               	movwf	(i2___llmod@divisor+3)^0,c
  6835  001EDA  ECCD  F018         	call	i2___llmod	;wreg free
  6836  001EDE  C00E  F031         	movff	?i2___llmod,Convert_data@hour
  6837  001EE2  C00F  F032         	movff	?i2___llmod+1,Convert_data@hour+1
  6838  001EE6  C010  F033         	movff	?i2___llmod+2,Convert_data@hour+2
  6839  001EEA  C011  F034         	movff	?i2___llmod+3,Convert_data@hour+3
  6840                           
  6841                           ;main.c: 299:     min = (data / 100) % 100;
  6842  001EEE  0E64               	movlw	100
  6843  001EF0  6E05               	movwf	i2___lldiv@divisor^0,c
  6844  001EF2  0E00               	movlw	0
  6845  001EF4  6E06               	movwf	(i2___lldiv@divisor+1)^0,c
  6846  001EF6  0E00               	movlw	0
  6847  001EF8  6E07               	movwf	(i2___lldiv@divisor+2)^0,c
  6848  001EFA  0E00               	movlw	0
  6849  001EFC  6E08               	movwf	(i2___lldiv@divisor+3)^0,c
  6850  001EFE  C021  F001         	movff	Convert_data@data,i2___lldiv@dividend
  6851  001F02  C022  F002         	movff	Convert_data@data+1,i2___lldiv@dividend+1
  6852  001F06  C023  F003         	movff	Convert_data@data+2,i2___lldiv@dividend+2
  6853  001F0A  C024  F004         	movff	Convert_data@data+3,i2___lldiv@dividend+3
  6854  001F0E  EC36  F018         	call	i2___lldiv	;wreg free
  6855  001F12  C001  F00E         	movff	?i2___lldiv,i2___llmod@dividend
  6856  001F16  C002  F00F         	movff	?i2___lldiv+1,i2___llmod@dividend+1
  6857  001F1A  C003  F010         	movff	?i2___lldiv+2,i2___llmod@dividend+2
  6858  001F1E  C004  F011         	movff	?i2___lldiv+3,i2___llmod@dividend+3
  6859  001F22  0E64               	movlw	100
  6860  001F24  6E12               	movwf	i2___llmod@divisor^0,c
  6861  001F26  0E00               	movlw	0
  6862  001F28  6E13               	movwf	(i2___llmod@divisor+1)^0,c
  6863  001F2A  0E00               	movlw	0
  6864  001F2C  6E14               	movwf	(i2___llmod@divisor+2)^0,c
  6865  001F2E  0E00               	movlw	0
  6866  001F30  6E15               	movwf	(i2___llmod@divisor+3)^0,c
  6867  001F32  ECCD  F018         	call	i2___llmod	;wreg free
  6868  001F36  C00E  F035         	movff	?i2___llmod,Convert_data@min
  6869  001F3A  C00F  F036         	movff	?i2___llmod+1,Convert_data@min+1
  6870  001F3E  C010  F037         	movff	?i2___llmod+2,Convert_data@min+2
  6871  001F42  C011  F038         	movff	?i2___llmod+3,Convert_data@min+3
  6872                           
  6873                           ;main.c: 300:     sec = (data / 1) % 100;
  6874  001F46  C021  F00E         	movff	Convert_data@data,i2___llmod@dividend
  6875  001F4A  C022  F00F         	movff	Convert_data@data+1,i2___llmod@dividend+1
  6876  001F4E  C023  F010         	movff	Convert_data@data+2,i2___llmod@dividend+2
  6877  001F52  C024  F011         	movff	Convert_data@data+3,i2___llmod@dividend+3
  6878  001F56  0E64               	movlw	100
  6879  001F58  6E12               	movwf	i2___llmod@divisor^0,c
  6880  001F5A  0E00               	movlw	0
  6881  001F5C  6E13               	movwf	(i2___llmod@divisor+1)^0,c
  6882  001F5E  0E00               	movlw	0
  6883  001F60  6E14               	movwf	(i2___llmod@divisor+2)^0,c
  6884  001F62  0E00               	movlw	0
  6885  001F64  6E15               	movwf	(i2___llmod@divisor+3)^0,c
  6886  001F66  ECCD  F018         	call	i2___llmod	;wreg free
  6887  001F6A  C00E  F02D         	movff	?i2___llmod,Convert_data@sec
  6888  001F6E  C00F  F02E         	movff	?i2___llmod+1,Convert_data@sec+1
  6889  001F72  C010  F02F         	movff	?i2___llmod+2,Convert_data@sec+2
  6890  001F76  C011  F030         	movff	?i2___llmod+3,Convert_data@sec+3
  6891                           
  6892                           ;main.c: 303:     hour = (hour + 9) % 24;
  6893  001F7A  0E09               	movlw	9
  6894  001F7C  2431               	addwf	Convert_data@hour^0,w,c
  6895  001F7E  6E0E               	movwf	i2___llmod@dividend^0,c
  6896  001F80  0E00               	movlw	0
  6897  001F82  2032               	addwfc	(Convert_data@hour+1)^0,w,c
  6898  001F84  6E0F               	movwf	(i2___llmod@dividend+1)^0,c
  6899  001F86  0E00               	movlw	0
  6900  001F88  2033               	addwfc	(Convert_data@hour+2)^0,w,c
  6901  001F8A  6E10               	movwf	(i2___llmod@dividend+2)^0,c
  6902  001F8C  0E00               	movlw	0
  6903  001F8E  2034               	addwfc	(Convert_data@hour+3)^0,w,c
  6904  001F90  6E11               	movwf	(i2___llmod@dividend+3)^0,c
  6905  001F92  0E18               	movlw	24
  6906  001F94  6E12               	movwf	i2___llmod@divisor^0,c
  6907  001F96  0E00               	movlw	0
  6908  001F98  6E13               	movwf	(i2___llmod@divisor+1)^0,c
  6909  001F9A  0E00               	movlw	0
  6910  001F9C  6E14               	movwf	(i2___llmod@divisor+2)^0,c
  6911  001F9E  0E00               	movlw	0
  6912  001FA0  6E15               	movwf	(i2___llmod@divisor+3)^0,c
  6913  001FA2  ECCD  F018         	call	i2___llmod	;wreg free
  6914  001FA6  C00E  F031         	movff	?i2___llmod,Convert_data@hour
  6915  001FAA  C00F  F032         	movff	?i2___llmod+1,Convert_data@hour+1
  6916  001FAE  C010  F033         	movff	?i2___llmod+2,Convert_data@hour+2
  6917  001FB2  C011  F034         	movff	?i2___llmod+3,Convert_data@hour+3
  6918                           
  6919                           ;main.c: 306:     if ((((min + 1) % 15) == 0) && (sec >= 55)) {
  6920  001FB6  0E01               	movlw	1
  6921  001FB8  2435               	addwf	Convert_data@min^0,w,c
  6922  001FBA  6E0E               	movwf	i2___llmod@dividend^0,c
  6923  001FBC  0E00               	movlw	0
  6924  001FBE  2036               	addwfc	(Convert_data@min+1)^0,w,c
  6925  001FC0  6E0F               	movwf	(i2___llmod@dividend+1)^0,c
  6926  001FC2  0E00               	movlw	0
  6927  001FC4  2037               	addwfc	(Convert_data@min+2)^0,w,c
  6928  001FC6  6E10               	movwf	(i2___llmod@dividend+2)^0,c
  6929  001FC8  0E00               	movlw	0
  6930  001FCA  2038               	addwfc	(Convert_data@min+3)^0,w,c
  6931  001FCC  6E11               	movwf	(i2___llmod@dividend+3)^0,c
  6932  001FCE  0E0F               	movlw	15
  6933  001FD0  6E12               	movwf	i2___llmod@divisor^0,c
  6934  001FD2  0E00               	movlw	0
  6935  001FD4  6E13               	movwf	(i2___llmod@divisor+1)^0,c
  6936  001FD6  0E00               	movlw	0
  6937  001FD8  6E14               	movwf	(i2___llmod@divisor+2)^0,c
  6938  001FDA  0E00               	movlw	0
  6939  001FDC  6E15               	movwf	(i2___llmod@divisor+3)^0,c
  6940  001FDE  ECCD  F018         	call	i2___llmod	;wreg free
  6941  001FE2  500E               	movf	?i2___llmod^0,w,c
  6942  001FE4  100F               	iorwf	(?i2___llmod+1)^0,w,c
  6943  001FE6  1010               	iorwf	(?i2___llmod+2)^0,w,c
  6944  001FE8  1011               	iorwf	(?i2___llmod+3)^0,w,c
  6945  001FEA  A4D8               	btfss	status,2,c
  6946  001FEC  EFFA  F00F         	goto	i2u309_41
  6947  001FF0  EFFC  F00F         	goto	i2u309_40
  6948  001FF4                     i2u309_41:
  6949  001FF4  EF60  F010         	goto	i2l2890
  6950  001FF8                     i2u309_40:
  6951  001FF8  5030               	movf	(Convert_data@sec+3)^0,w,c
  6952  001FFA  102F               	iorwf	(Convert_data@sec+2)^0,w,c
  6953  001FFC  102E               	iorwf	(Convert_data@sec+1)^0,w,c
  6954  001FFE  E109               	bnz	i2u310_40
  6955  002000  0E37               	movlw	55
  6956  002002  5C2D               	subwf	Convert_data@sec^0,w,c
  6957  002004  A0D8               	btfss	status,0,c
  6958  002006  EF07  F010         	goto	i2u310_41
  6959  00200A  EF09  F010         	goto	i2u310_40
  6960  00200E                     i2u310_41:
  6961  00200E  EF60  F010         	goto	i2l2890
  6962  002012                     i2u310_40:
  6963  002012                     
  6964                           ;main.c: 307:         dgm_f = 1;
  6965  002012  0E01               	movlw	1
  6966  002014  0100               	movlb	0	; () banked
  6967  002016  6FCC               	movwf	_dgm_f& (0+255),b
  6968  002018                     
  6969                           ; BSR set to: 0
  6970                           ;main.c: 309:         if (min == 59) {
  6971  002018  0E3B               	movlw	59
  6972  00201A  1835               	xorwf	Convert_data@min^0,w,c
  6973  00201C  1036               	iorwf	(Convert_data@min+1)^0,w,c
  6974  00201E  1037               	iorwf	(Convert_data@min+2)^0,w,c
  6975  002020  1038               	iorwf	(Convert_data@min+3)^0,w,c
  6976  002022  A4D8               	btfss	status,2,c
  6977  002024  EF16  F010         	goto	i2u311_41
  6978  002028  EF18  F010         	goto	i2u311_40
  6979  00202C                     i2u311_41:
  6980  00202C  EF38  F010         	goto	i2l187
  6981  002030                     i2u311_40:
  6982  002030                     
  6983                           ; BSR set to: 0
  6984                           ;main.c: 310:             hour = (++hour) % 24;
  6985  002030  0E01               	movlw	1
  6986  002032  2631               	addwf	Convert_data@hour^0,f,c
  6987  002034  0E00               	movlw	0
  6988  002036  2232               	addwfc	(Convert_data@hour+1)^0,f,c
  6989  002038  2233               	addwfc	(Convert_data@hour+2)^0,f,c
  6990  00203A  2234               	addwfc	(Convert_data@hour+3)^0,f,c
  6991  00203C  C031  F00E         	movff	Convert_data@hour,i2___llmod@dividend
  6992  002040  C032  F00F         	movff	Convert_data@hour+1,i2___llmod@dividend+1
  6993  002044  C033  F010         	movff	Convert_data@hour+2,i2___llmod@dividend+2
  6994  002048  C034  F011         	movff	Convert_data@hour+3,i2___llmod@dividend+3
  6995  00204C  0E18               	movlw	24
  6996  00204E  6E12               	movwf	i2___llmod@divisor^0,c
  6997  002050  0E00               	movlw	0
  6998  002052  6E13               	movwf	(i2___llmod@divisor+1)^0,c
  6999  002054  0E00               	movlw	0
  7000  002056  6E14               	movwf	(i2___llmod@divisor+2)^0,c
  7001  002058  0E00               	movlw	0
  7002  00205A  6E15               	movwf	(i2___llmod@divisor+3)^0,c
  7003  00205C  ECCD  F018         	call	i2___llmod	;wreg free
  7004  002060  C00E  F031         	movff	?i2___llmod,Convert_data@hour
  7005  002064  C00F  F032         	movff	?i2___llmod+1,Convert_data@hour+1
  7006  002068  C010  F033         	movff	?i2___llmod+2,Convert_data@hour+2
  7007  00206C  C011  F034         	movff	?i2___llmod+3,Convert_data@hour+3
  7008  002070                     i2l187:
  7009                           
  7010                           ;main.c: 313:         min = (++min) % 60;
  7011  002070  0E01               	movlw	1
  7012  002072  2635               	addwf	Convert_data@min^0,f,c
  7013  002074  0E00               	movlw	0
  7014  002076  2236               	addwfc	(Convert_data@min+1)^0,f,c
  7015  002078  2237               	addwfc	(Convert_data@min+2)^0,f,c
  7016  00207A  2238               	addwfc	(Convert_data@min+3)^0,f,c
  7017  00207C  C035  F00E         	movff	Convert_data@min,i2___llmod@dividend
  7018  002080  C036  F00F         	movff	Convert_data@min+1,i2___llmod@dividend+1
  7019  002084  C037  F010         	movff	Convert_data@min+2,i2___llmod@dividend+2
  7020  002088  C038  F011         	movff	Convert_data@min+3,i2___llmod@dividend+3
  7021  00208C  0E3C               	movlw	60
  7022  00208E  6E12               	movwf	i2___llmod@divisor^0,c
  7023  002090  0E00               	movlw	0
  7024  002092  6E13               	movwf	(i2___llmod@divisor+1)^0,c
  7025  002094  0E00               	movlw	0
  7026  002096  6E14               	movwf	(i2___llmod@divisor+2)^0,c
  7027  002098  0E00               	movlw	0
  7028  00209A  6E15               	movwf	(i2___llmod@divisor+3)^0,c
  7029  00209C  ECCD  F018         	call	i2___llmod	;wreg free
  7030  0020A0  C00E  F035         	movff	?i2___llmod,Convert_data@min
  7031  0020A4  C00F  F036         	movff	?i2___llmod+1,Convert_data@min+1
  7032  0020A8  C010  F037         	movff	?i2___llmod+2,Convert_data@min+2
  7033  0020AC  C011  F038         	movff	?i2___llmod+3,Convert_data@min+3
  7034  0020B0                     
  7035                           ;main.c: 314:         sec = 0;
  7036  0020B0  0E00               	movlw	0
  7037  0020B2  6E2D               	movwf	Convert_data@sec^0,c
  7038  0020B4  0E00               	movlw	0
  7039  0020B6  6E2E               	movwf	(Convert_data@sec+1)^0,c
  7040  0020B8  0E00               	movlw	0
  7041  0020BA  6E2F               	movwf	(Convert_data@sec+2)^0,c
  7042  0020BC  0E00               	movlw	0
  7043  0020BE  6E30               	movwf	(Convert_data@sec+3)^0,c
  7044  0020C0                     i2l2890:
  7045                           
  7046                           ;main.c: 317:     return (hour * 10000) + (min * 100) + (sec * 1);
  7047  0020C0  C031  F001         	movff	Convert_data@hour,i2___lmul@multiplier
  7048  0020C4  C032  F002         	movff	Convert_data@hour+1,i2___lmul@multiplier+1
  7049  0020C8  C033  F003         	movff	Convert_data@hour+2,i2___lmul@multiplier+2
  7050  0020CC  C034  F004         	movff	Convert_data@hour+3,i2___lmul@multiplier+3
  7051  0020D0  0E10               	movlw	16
  7052  0020D2  6E05               	movwf	i2___lmul@multiplicand^0,c
  7053  0020D4  0E27               	movlw	39
  7054  0020D6  6E06               	movwf	(i2___lmul@multiplicand+1)^0,c
  7055  0020D8  0E00               	movlw	0
  7056  0020DA  6E07               	movwf	(i2___lmul@multiplicand+2)^0,c
  7057  0020DC  0E00               	movlw	0
  7058  0020DE  6E08               	movwf	(i2___lmul@multiplicand+3)^0,c
  7059  0020E0  ECF0  F019         	call	i2___lmul	;wreg free
  7060  0020E4  C001  F025         	movff	?i2___lmul,??_Convert_data
  7061  0020E8  C002  F026         	movff	?i2___lmul+1,??_Convert_data+1
  7062  0020EC  C003  F027         	movff	?i2___lmul+2,??_Convert_data+2
  7063  0020F0  C004  F028         	movff	?i2___lmul+3,??_Convert_data+3
  7064  0020F4  C035  F001         	movff	Convert_data@min,i2___lmul@multiplier
  7065  0020F8  C036  F002         	movff	Convert_data@min+1,i2___lmul@multiplier+1
  7066  0020FC  C037  F003         	movff	Convert_data@min+2,i2___lmul@multiplier+2
  7067  002100  C038  F004         	movff	Convert_data@min+3,i2___lmul@multiplier+3
  7068  002104  0E64               	movlw	100
  7069  002106  6E05               	movwf	i2___lmul@multiplicand^0,c
  7070  002108  0E00               	movlw	0
  7071  00210A  6E06               	movwf	(i2___lmul@multiplicand+1)^0,c
  7072  00210C  0E00               	movlw	0
  7073  00210E  6E07               	movwf	(i2___lmul@multiplicand+2)^0,c
  7074  002110  0E00               	movlw	0
  7075  002112  6E08               	movwf	(i2___lmul@multiplicand+3)^0,c
  7076  002114  ECF0  F019         	call	i2___lmul	;wreg free
  7077  002118  5001               	movf	?i2___lmul^0,w,c
  7078  00211A  2425               	addwf	??_Convert_data^0,w,c
  7079  00211C  6E29               	movwf	(??_Convert_data+4)^0,c
  7080  00211E  5002               	movf	(?i2___lmul+1)^0,w,c
  7081  002120  2026               	addwfc	(??_Convert_data+1)^0,w,c
  7082  002122  6E2A               	movwf	(??_Convert_data+5)^0,c
  7083  002124  5003               	movf	(?i2___lmul+2)^0,w,c
  7084  002126  2027               	addwfc	(??_Convert_data+2)^0,w,c
  7085  002128  6E2B               	movwf	(??_Convert_data+6)^0,c
  7086  00212A  5004               	movf	(?i2___lmul+3)^0,w,c
  7087  00212C  2028               	addwfc	(??_Convert_data+3)^0,w,c
  7088  00212E  6E2C               	movwf	(??_Convert_data+7)^0,c
  7089  002130  502D               	movf	Convert_data@sec^0,w,c
  7090  002132  2429               	addwf	(??_Convert_data+4)^0,w,c
  7091  002134  6E21               	movwf	?_Convert_data^0,c
  7092  002136  502E               	movf	(Convert_data@sec+1)^0,w,c
  7093  002138  202A               	addwfc	(??_Convert_data+5)^0,w,c
  7094  00213A  6E22               	movwf	(?_Convert_data+1)^0,c
  7095  00213C  502F               	movf	(Convert_data@sec+2)^0,w,c
  7096  00213E  202B               	addwfc	(??_Convert_data+6)^0,w,c
  7097  002140  6E23               	movwf	(?_Convert_data+2)^0,c
  7098  002142  5030               	movf	(Convert_data@sec+3)^0,w,c
  7099  002144  202C               	addwfc	(??_Convert_data+7)^0,w,c
  7100  002146  6E24               	movwf	(?_Convert_data+3)^0,c
  7101  002148  0012               	return		;funcret
  7102  00214A                     __end_of_Convert_data:
  7103                           	callstack 0
  7104                           
  7105 ;; *************** function i2___lmul *****************
  7106 ;; Defined at:
  7107 ;;		line 15 in file "C:\Program Files\Microchip\xc8\v2.32\pic\sources\c99\common\Umul32.c"
  7108 ;; Parameters:    Size  Location     Type
  7109 ;;  multiplier      4    0[COMRAM] unsigned long 
  7110 ;;  multiplicand    4    4[COMRAM] unsigned long 
  7111 ;; Auto vars:     Size  Location     Type
  7112 ;;  product         4    8[COMRAM] unsigned long 
  7113 ;; Return value:  Size  Location     Type
  7114 ;;                  4    0[COMRAM] unsigned long 
  7115 ;; Registers used:
  7116 ;;		wreg, status,2, status,0
  7117 ;; Tracked objects:
  7118 ;;		On entry : 0/0
  7119 ;;		On exit  : 0/0
  7120 ;;		Unchanged: 0/0
  7121 ;; Data sizes:     COMRAM   BANK0   BANK1   BANK2   BANK3   BANK4   BANK5   BANK6   BANK7   BANK8   BANK9  BANK10  BANK1
      +1  BANK12  BANK13  BANK14
  7122 ;;      Params:         8       0       0       0       0       0       0       0       0       0       0       0       
      +0       0       0       0
  7123 ;;      Locals:         4       0       0       0       0       0       0       0       0       0       0       0       
      +0       0       0       0
  7124 ;;      Temps:          0       0       0       0       0       0       0       0       0       0       0       0       
      +0       0       0       0
  7125 ;;      Totals:        12       0       0       0       0       0       0       0       0       0       0       0       
      +0       0       0       0
  7126 ;;Total ram usage:       12 bytes
  7127 ;; Hardware stack levels used: 1
  7128 ;; This function calls:
  7129 ;;		Nothing
  7130 ;; This function is called by:
  7131 ;;		_Convert_data
  7132 ;;		_atol
  7133 ;; This function uses a non-reentrant model
  7134 ;;
  7135                           
  7136                           	psect	text28
  7137  0033E0                     __ptext28:
  7138                           	callstack 0
  7139  0033E0                     i2___lmul:
  7140                           	callstack 24
  7141  0033E0  0E00               	movlw	0
  7142  0033E2  6E09               	movwf	i2___lmul@product^0,c
  7143  0033E4  0E00               	movlw	0
  7144  0033E6  6E0A               	movwf	(i2___lmul@product+1)^0,c
  7145  0033E8  0E00               	movlw	0
  7146  0033EA  6E0B               	movwf	(i2___lmul@product+2)^0,c
  7147  0033EC  0E00               	movlw	0
  7148  0033EE  6E0C               	movwf	(i2___lmul@product+3)^0,c
  7149  0033F0                     i2l2718:
  7150  0033F0  A001               	btfss	i2___lmul@multiplier^0,0,c
  7151  0033F2  EFFD  F019         	goto	i2u285_41
  7152  0033F6  EFFF  F019         	goto	i2u285_40
  7153  0033FA                     i2u285_41:
  7154  0033FA  EF07  F01A         	goto	i2l2722
  7155  0033FE                     i2u285_40:
  7156  0033FE  5005               	movf	i2___lmul@multiplicand^0,w,c
  7157  003400  2609               	addwf	i2___lmul@product^0,f,c
  7158  003402  5006               	movf	(i2___lmul@multiplicand+1)^0,w,c
  7159  003404  220A               	addwfc	(i2___lmul@product+1)^0,f,c
  7160  003406  5007               	movf	(i2___lmul@multiplicand+2)^0,w,c
  7161  003408  220B               	addwfc	(i2___lmul@product+2)^0,f,c
  7162  00340A  5008               	movf	(i2___lmul@multiplicand+3)^0,w,c
  7163  00340C  220C               	addwfc	(i2___lmul@product+3)^0,f,c
  7164  00340E                     i2l2722:
  7165  00340E  90D8               	bcf	status,0,c
  7166  003410  3605               	rlcf	i2___lmul@multiplicand^0,f,c
  7167  003412  3606               	rlcf	(i2___lmul@multiplicand+1)^0,f,c
  7168  003414  3607               	rlcf	(i2___lmul@multiplicand+2)^0,f,c
  7169  003416  3608               	rlcf	(i2___lmul@multiplicand+3)^0,f,c
  7170  003418  90D8               	bcf	status,0,c
  7171  00341A  3204               	rrcf	(i2___lmul@multiplier+3)^0,f,c
  7172  00341C  3203               	rrcf	(i2___lmul@multiplier+2)^0,f,c
  7173  00341E  3202               	rrcf	(i2___lmul@multiplier+1)^0,f,c
  7174  003420  3201               	rrcf	i2___lmul@multiplier^0,f,c
  7175  003422  5001               	movf	i2___lmul@multiplier^0,w,c
  7176  003424  1002               	iorwf	(i2___lmul@multiplier+1)^0,w,c
  7177  003426  1003               	iorwf	(i2___lmul@multiplier+2)^0,w,c
  7178  003428  1004               	iorwf	(i2___lmul@multiplier+3)^0,w,c
  7179  00342A  A4D8               	btfss	status,2,c
  7180  00342C  EF1A  F01A         	goto	i2u286_41
  7181  003430  EF1C  F01A         	goto	i2u286_40
  7182  003434                     i2u286_41:
  7183  003434  EFF8  F019         	goto	i2l2718
  7184  003438                     i2u286_40:
  7185  003438  C009  F001         	movff	i2___lmul@product,?i2___lmul
  7186  00343C  C00A  F002         	movff	i2___lmul@product+1,?i2___lmul+1
  7187  003440  C00B  F003         	movff	i2___lmul@product+2,?i2___lmul+2
  7188  003444  C00C  F004         	movff	i2___lmul@product+3,?i2___lmul+3
  7189  003448  0012               	return		;funcret
  7190  00344A                     __end_ofi2___lmul:
  7191                           	callstack 0
  7192                           
  7193 ;; *************** function i2___llmod *****************
  7194 ;; Defined at:
  7195 ;;		line 7 in file "C:\Program Files\Microchip\xc8\v2.32\pic\sources\c99\common\llmod.c"
  7196 ;; Parameters:    Size  Location     Type
  7197 ;;  dividend        4   13[COMRAM] unsigned long 
  7198 ;;  divisor         4   17[COMRAM] unsigned long 
  7199 ;; Auto vars:     Size  Location     Type
  7200 ;;  counter         1   21[COMRAM] unsigned char 
  7201 ;; Return value:  Size  Location     Type
  7202 ;;                  4   13[COMRAM] unsigned long 
  7203 ;; Registers used:
  7204 ;;		wreg, status,2, status,0
  7205 ;; Tracked objects:
  7206 ;;		On entry : 0/0
  7207 ;;		On exit  : 0/0
  7208 ;;		Unchanged: 0/0
  7209 ;; Data sizes:     COMRAM   BANK0   BANK1   BANK2   BANK3   BANK4   BANK5   BANK6   BANK7   BANK8   BANK9  BANK10  BANK1
      +1  BANK12  BANK13  BANK14
  7210 ;;      Params:         8       0       0       0       0       0       0       0       0       0       0       0       
      +0       0       0       0
  7211 ;;      Locals:         1       0       0       0       0       0       0       0       0       0       0       0       
      +0       0       0       0
  7212 ;;      Temps:          0       0       0       0       0       0       0       0       0       0       0       0       
      +0       0       0       0
  7213 ;;      Totals:         9       0       0       0       0       0       0       0       0       0       0       0       
      +0       0       0       0
  7214 ;;Total ram usage:        9 bytes
  7215 ;; Hardware stack levels used: 1
  7216 ;; This function calls:
  7217 ;;		Nothing
  7218 ;; This function is called by:
  7219 ;;		_Convert_data
  7220 ;; This function uses a non-reentrant model
  7221 ;;
  7222                           
  7223                           	psect	text29
  7224  00319A                     __ptext29:
  7225                           	callstack 0
  7226  00319A                     i2___llmod:
  7227                           	callstack 24
  7228  00319A  5012               	movf	i2___llmod@divisor^0,w,c
  7229  00319C  1013               	iorwf	(i2___llmod@divisor+1)^0,w,c
  7230  00319E  1014               	iorwf	(i2___llmod@divisor+2)^0,w,c
  7231  0031A0  1015               	iorwf	(i2___llmod@divisor+3)^0,w,c
  7232  0031A2  B4D8               	btfsc	status,2,c
  7233  0031A4  EFD6  F018         	goto	i2u290_41
  7234  0031A8  EFD8  F018         	goto	i2u290_40
  7235  0031AC                     i2u290_41:
  7236  0031AC  EF08  F019         	goto	i2l684
  7237  0031B0                     i2u290_40:
  7238  0031B0  0E01               	movlw	1
  7239  0031B2  6E16               	movwf	i2___llmod@counter^0,c
  7240  0031B4  EFE2  F018         	goto	i2l2754
  7241  0031B8                     i2l2752:
  7242  0031B8  90D8               	bcf	status,0,c
  7243  0031BA  3612               	rlcf	i2___llmod@divisor^0,f,c
  7244  0031BC  3613               	rlcf	(i2___llmod@divisor+1)^0,f,c
  7245  0031BE  3614               	rlcf	(i2___llmod@divisor+2)^0,f,c
  7246  0031C0  3615               	rlcf	(i2___llmod@divisor+3)^0,f,c
  7247  0031C2  2A16               	incf	i2___llmod@counter^0,f,c
  7248  0031C4                     i2l2754:
  7249  0031C4  AE15               	btfss	(i2___llmod@divisor+3)^0,7,c
  7250  0031C6  EFE7  F018         	goto	i2u291_41
  7251  0031CA  EFE9  F018         	goto	i2u291_40
  7252  0031CE                     i2u291_41:
  7253  0031CE  EFDC  F018         	goto	i2l2752
  7254  0031D2                     i2u291_40:
  7255  0031D2                     i2l2756:
  7256  0031D2  5012               	movf	i2___llmod@divisor^0,w,c
  7257  0031D4  5C0E               	subwf	i2___llmod@dividend^0,w,c
  7258  0031D6  5013               	movf	(i2___llmod@divisor+1)^0,w,c
  7259  0031D8  580F               	subwfb	(i2___llmod@dividend+1)^0,w,c
  7260  0031DA  5014               	movf	(i2___llmod@divisor+2)^0,w,c
  7261  0031DC  5810               	subwfb	(i2___llmod@dividend+2)^0,w,c
  7262  0031DE  5015               	movf	(i2___llmod@divisor+3)^0,w,c
  7263  0031E0  5811               	subwfb	(i2___llmod@dividend+3)^0,w,c
  7264  0031E2  A0D8               	btfss	status,0,c
  7265  0031E4  EFF6  F018         	goto	i2u292_41
  7266  0031E8  EFF8  F018         	goto	i2u292_40
  7267  0031EC                     i2u292_41:
  7268  0031EC  EF00  F019         	goto	i2l2760
  7269  0031F0                     i2u292_40:
  7270  0031F0  5012               	movf	i2___llmod@divisor^0,w,c
  7271  0031F2  5E0E               	subwf	i2___llmod@dividend^0,f,c
  7272  0031F4  5013               	movf	(i2___llmod@divisor+1)^0,w,c
  7273  0031F6  5A0F               	subwfb	(i2___llmod@dividend+1)^0,f,c
  7274  0031F8  5014               	movf	(i2___llmod@divisor+2)^0,w,c
  7275  0031FA  5A10               	subwfb	(i2___llmod@dividend+2)^0,f,c
  7276  0031FC  5015               	movf	(i2___llmod@divisor+3)^0,w,c
  7277  0031FE  5A11               	subwfb	(i2___llmod@dividend+3)^0,f,c
  7278  003200                     i2l2760:
  7279  003200  90D8               	bcf	status,0,c
  7280  003202  3215               	rrcf	(i2___llmod@divisor+3)^0,f,c
  7281  003204  3214               	rrcf	(i2___llmod@divisor+2)^0,f,c
  7282  003206  3213               	rrcf	(i2___llmod@divisor+1)^0,f,c
  7283  003208  3212               	rrcf	i2___llmod@divisor^0,f,c
  7284  00320A  2E16               	decfsz	i2___llmod@counter^0,f,c
  7285  00320C  EFE9  F018         	goto	i2l2756
  7286  003210                     i2l684:
  7287  003210  C00E  F00E         	movff	i2___llmod@dividend,?i2___llmod
  7288  003214  C00F  F00F         	movff	i2___llmod@dividend+1,?i2___llmod+1
  7289  003218  C010  F010         	movff	i2___llmod@dividend+2,?i2___llmod+2
  7290  00321C  C011  F011         	movff	i2___llmod@dividend+3,?i2___llmod+3
  7291  003220  0012               	return		;funcret
  7292  003222                     __end_ofi2___llmod:
  7293                           	callstack 0
  7294                           
  7295 ;; *************** function i2___lldiv *****************
  7296 ;; Defined at:
  7297 ;;		line 7 in file "C:\Program Files\Microchip\xc8\v2.32\pic\sources\c99\common\__lldiv.c"
  7298 ;; Parameters:    Size  Location     Type
  7299 ;;  dividend        4    0[COMRAM] unsigned long 
  7300 ;;  divisor         4    4[COMRAM] unsigned long 
  7301 ;; Auto vars:     Size  Location     Type
  7302 ;;  quotient        4    8[COMRAM] unsigned long 
  7303 ;;  counter         1   12[COMRAM] unsigned char 
  7304 ;; Return value:  Size  Location     Type
  7305 ;;                  4    0[COMRAM] unsigned long 
  7306 ;; Registers used:
  7307 ;;		wreg, status,2, status,0
  7308 ;; Tracked objects:
  7309 ;;		On entry : 0/0
  7310 ;;		On exit  : 0/0
  7311 ;;		Unchanged: 0/0
  7312 ;; Data sizes:     COMRAM   BANK0   BANK1   BANK2   BANK3   BANK4   BANK5   BANK6   BANK7   BANK8   BANK9  BANK10  BANK1
      +1  BANK12  BANK13  BANK14
  7313 ;;      Params:         8       0       0       0       0       0       0       0       0       0       0       0       
      +0       0       0       0
  7314 ;;      Locals:         5       0       0       0       0       0       0       0       0       0       0       0       
      +0       0       0       0
  7315 ;;      Temps:          0       0       0       0       0       0       0       0       0       0       0       0       
      +0       0       0       0
  7316 ;;      Totals:        13       0       0       0       0       0       0       0       0       0       0       0       
      +0       0       0       0
  7317 ;;Total ram usage:       13 bytes
  7318 ;; Hardware stack levels used: 1
  7319 ;; This function calls:
  7320 ;;		Nothing
  7321 ;; This function is called by:
  7322 ;;		_Convert_data
  7323 ;; This function uses a non-reentrant model
  7324 ;;
  7325                           
  7326                           	psect	text30
  7327  00306C                     __ptext30:
  7328                           	callstack 0
  7329  00306C                     i2___lldiv:
  7330                           	callstack 24
  7331  00306C  0E00               	movlw	0
  7332  00306E  6E09               	movwf	i2___lldiv@quotient^0,c
  7333  003070  0E00               	movlw	0
  7334  003072  6E0A               	movwf	(i2___lldiv@quotient+1)^0,c
  7335  003074  0E00               	movlw	0
  7336  003076  6E0B               	movwf	(i2___lldiv@quotient+2)^0,c
  7337  003078  0E00               	movlw	0
  7338  00307A  6E0C               	movwf	(i2___lldiv@quotient+3)^0,c
  7339  00307C  5005               	movf	i2___lldiv@divisor^0,w,c
  7340  00307E  1006               	iorwf	(i2___lldiv@divisor+1)^0,w,c
  7341  003080  1007               	iorwf	(i2___lldiv@divisor+2)^0,w,c
  7342  003082  1008               	iorwf	(i2___lldiv@divisor+3)^0,w,c
  7343  003084  B4D8               	btfsc	status,2,c
  7344  003086  EF47  F018         	goto	i2u287_41
  7345  00308A  EF49  F018         	goto	i2u287_40
  7346  00308E                     i2u287_41:
  7347  00308E  EF7F  F018         	goto	i2l291
  7348  003092                     i2u287_40:
  7349  003092  0E01               	movlw	1
  7350  003094  6E0D               	movwf	i2___lldiv@counter^0,c
  7351  003096  EF53  F018         	goto	i2l2734
  7352  00309A                     i2l2732:
  7353  00309A  90D8               	bcf	status,0,c
  7354  00309C  3605               	rlcf	i2___lldiv@divisor^0,f,c
  7355  00309E  3606               	rlcf	(i2___lldiv@divisor+1)^0,f,c
  7356  0030A0  3607               	rlcf	(i2___lldiv@divisor+2)^0,f,c
  7357  0030A2  3608               	rlcf	(i2___lldiv@divisor+3)^0,f,c
  7358  0030A4  2A0D               	incf	i2___lldiv@counter^0,f,c
  7359  0030A6                     i2l2734:
  7360  0030A6  AE08               	btfss	(i2___lldiv@divisor+3)^0,7,c
  7361  0030A8  EF58  F018         	goto	i2u288_41
  7362  0030AC  EF5A  F018         	goto	i2u288_40
  7363  0030B0                     i2u288_41:
  7364  0030B0  EF4D  F018         	goto	i2l2732
  7365  0030B4                     i2u288_40:
  7366  0030B4                     i2l2736:
  7367  0030B4  90D8               	bcf	status,0,c
  7368  0030B6  3609               	rlcf	i2___lldiv@quotient^0,f,c
  7369  0030B8  360A               	rlcf	(i2___lldiv@quotient+1)^0,f,c
  7370  0030BA  360B               	rlcf	(i2___lldiv@quotient+2)^0,f,c
  7371  0030BC  360C               	rlcf	(i2___lldiv@quotient+3)^0,f,c
  7372  0030BE  5005               	movf	i2___lldiv@divisor^0,w,c
  7373  0030C0  5C01               	subwf	i2___lldiv@dividend^0,w,c
  7374  0030C2  5006               	movf	(i2___lldiv@divisor+1)^0,w,c
  7375  0030C4  5802               	subwfb	(i2___lldiv@dividend+1)^0,w,c
  7376  0030C6  5007               	movf	(i2___lldiv@divisor+2)^0,w,c
  7377  0030C8  5803               	subwfb	(i2___lldiv@dividend+2)^0,w,c
  7378  0030CA  5008               	movf	(i2___lldiv@divisor+3)^0,w,c
  7379  0030CC  5804               	subwfb	(i2___lldiv@dividend+3)^0,w,c
  7380  0030CE  A0D8               	btfss	status,0,c
  7381  0030D0  EF6C  F018         	goto	i2u289_41
  7382  0030D4  EF6E  F018         	goto	i2u289_40
  7383  0030D8                     i2u289_41:
  7384  0030D8  EF77  F018         	goto	i2l2744
  7385  0030DC                     i2u289_40:
  7386  0030DC  5005               	movf	i2___lldiv@divisor^0,w,c
  7387  0030DE  5E01               	subwf	i2___lldiv@dividend^0,f,c
  7388  0030E0  5006               	movf	(i2___lldiv@divisor+1)^0,w,c
  7389  0030E2  5A02               	subwfb	(i2___lldiv@dividend+1)^0,f,c
  7390  0030E4  5007               	movf	(i2___lldiv@divisor+2)^0,w,c
  7391  0030E6  5A03               	subwfb	(i2___lldiv@dividend+2)^0,f,c
  7392  0030E8  5008               	movf	(i2___lldiv@divisor+3)^0,w,c
  7393  0030EA  5A04               	subwfb	(i2___lldiv@dividend+3)^0,f,c
  7394  0030EC  8009               	bsf	i2___lldiv@quotient^0,0,c
  7395  0030EE                     i2l2744:
  7396  0030EE  90D8               	bcf	status,0,c
  7397  0030F0  3208               	rrcf	(i2___lldiv@divisor+3)^0,f,c
  7398  0030F2  3207               	rrcf	(i2___lldiv@divisor+2)^0,f,c
  7399  0030F4  3206               	rrcf	(i2___lldiv@divisor+1)^0,f,c
  7400  0030F6  3205               	rrcf	i2___lldiv@divisor^0,f,c
  7401  0030F8  2E0D               	decfsz	i2___lldiv@counter^0,f,c
  7402  0030FA  EF5A  F018         	goto	i2l2736
  7403  0030FE                     i2l291:
  7404  0030FE  C009  F001         	movff	i2___lldiv@quotient,?i2___lldiv
  7405  003102  C00A  F002         	movff	i2___lldiv@quotient+1,?i2___lldiv+1
  7406  003106  C00B  F003         	movff	i2___lldiv@quotient+2,?i2___lldiv+2
  7407  00310A  C00C  F004         	movff	i2___lldiv@quotient+3,?i2___lldiv+3
  7408  00310E  0012               	return		;funcret
  7409  003110                     __end_ofi2___lldiv:
  7410                           	callstack 0
  7411                           
  7412                           	psect	rparam
  7413  0000                     
  7414                           	psect	temp
  7415  00004B                     btemp:
  7416                           	callstack 0
  7417  00004B                     	ds	1
  7418  0000                     int$flags	set	btemp
  7419  0000                     wtemp8	set	btemp+1
  7420  0000                     ttemp5	set	btemp+1
  7421  0000                     ttemp6	set	btemp+4
  7422  0000                     ttemp7	set	btemp+8
  7423                           
  7424                           	psect	idloc
  7425                           
  7426                           ;Config register IDLOC0 @ 0x200000
  7427                           ;	unspecified, using default values
  7428  200000                     	org	2097152
  7429  200000  FFFF               	dw	65535
  7430                           
  7431                           ;Config register IDLOC1 @ 0x200002
  7432                           ;	unspecified, using default values
  7433  200002                     	org	2097154
  7434  200002  FFFF               	dw	65535
  7435                           
  7436                           ;Config register IDLOC2 @ 0x200004
  7437                           ;	unspecified, using default values
  7438  200004                     	org	2097156
  7439  200004  FFFF               	dw	65535
  7440                           
  7441                           ;Config register IDLOC3 @ 0x200006
  7442                           ;	unspecified, using default values
  7443  200006                     	org	2097158
  7444  200006  FFFF               	dw	65535
  7445                           
  7446                           ;Config register IDLOC4 @ 0x200008
  7447                           ;	unspecified, using default values
  7448  200008                     	org	2097160
  7449  200008  FFFF               	dw	65535
  7450                           
  7451                           ;Config register IDLOC5 @ 0x20000A
  7452                           ;	unspecified, using default values
  7453  20000A                     	org	2097162
  7454  20000A  FFFF               	dw	65535
  7455                           
  7456                           ;Config register IDLOC6 @ 0x20000C
  7457                           ;	unspecified, using default values
  7458  20000C                     	org	2097164
  7459  20000C  FFFF               	dw	65535
  7460                           
  7461                           ;Config register IDLOC7 @ 0x20000E
  7462                           ;	unspecified, using default values
  7463  20000E                     	org	2097166
  7464  20000E  FFFF               	dw	65535
  7465                           
  7466                           ;Config register IDLOC8 @ 0x200010
  7467                           ;	unspecified, using default values
  7468  200010                     	org	2097168
  7469  200010  FFFF               	dw	65535
  7470                           
  7471                           ;Config register IDLOC9 @ 0x200012
  7472                           ;	unspecified, using default values
  7473  200012                     	org	2097170
  7474  200012  FFFF               	dw	65535
  7475                           
  7476                           ;Config register IDLOC10 @ 0x200014
  7477                           ;	unspecified, using default values
  7478  200014                     	org	2097172
  7479  200014  FFFF               	dw	65535
  7480                           
  7481                           ;Config register IDLOC11 @ 0x200016
  7482                           ;	unspecified, using default values
  7483  200016                     	org	2097174
  7484  200016  FFFF               	dw	65535
  7485                           
  7486                           ;Config register IDLOC12 @ 0x200018
  7487                           ;	unspecified, using default values
  7488  200018                     	org	2097176
  7489  200018  FFFF               	dw	65535
  7490                           
  7491                           ;Config register IDLOC13 @ 0x20001A
  7492                           ;	unspecified, using default values
  7493  20001A                     	org	2097178
  7494  20001A  FFFF               	dw	65535
  7495                           
  7496                           ;Config register IDLOC14 @ 0x20001C
  7497                           ;	unspecified, using default values
  7498  20001C                     	org	2097180
  7499  20001C  FFFF               	dw	65535
  7500                           
  7501                           ;Config register IDLOC15 @ 0x20001E
  7502                           ;	unspecified, using default values
  7503  20001E                     	org	2097182
  7504  20001E  FFFF               	dw	65535
  7505                           
  7506                           ;Config register IDLOC16 @ 0x200020
  7507                           ;	unspecified, using default values
  7508  200020                     	org	2097184
  7509  200020  FFFF               	dw	65535
  7510                           
  7511                           ;Config register IDLOC17 @ 0x200022
  7512                           ;	unspecified, using default values
  7513  200022                     	org	2097186
  7514  200022  FFFF               	dw	65535
  7515                           
  7516                           ;Config register IDLOC18 @ 0x200024
  7517                           ;	unspecified, using default values
  7518  200024                     	org	2097188
  7519  200024  FFFF               	dw	65535
  7520                           
  7521                           ;Config register IDLOC19 @ 0x200026
  7522                           ;	unspecified, using default values
  7523  200026                     	org	2097190
  7524  200026  FFFF               	dw	65535
  7525                           
  7526                           ;Config register IDLOC20 @ 0x200028
  7527                           ;	unspecified, using default values
  7528  200028                     	org	2097192
  7529  200028  FFFF               	dw	65535
  7530                           
  7531                           ;Config register IDLOC21 @ 0x20002A
  7532                           ;	unspecified, using default values
  7533  20002A                     	org	2097194
  7534  20002A  FFFF               	dw	65535
  7535                           
  7536                           ;Config register IDLOC22 @ 0x20002C
  7537                           ;	unspecified, using default values
  7538  20002C                     	org	2097196
  7539  20002C  FFFF               	dw	65535
  7540                           
  7541                           ;Config register IDLOC23 @ 0x20002E
  7542                           ;	unspecified, using default values
  7543  20002E                     	org	2097198
  7544  20002E  FFFF               	dw	65535
  7545                           
  7546                           ;Config register IDLOC24 @ 0x200030
  7547                           ;	unspecified, using default values
  7548  200030                     	org	2097200
  7549  200030  FFFF               	dw	65535
  7550                           
  7551                           ;Config register IDLOC25 @ 0x200032
  7552                           ;	unspecified, using default values
  7553  200032                     	org	2097202
  7554  200032  FFFF               	dw	65535
  7555                           
  7556                           ;Config register IDLOC26 @ 0x200034
  7557                           ;	unspecified, using default values
  7558  200034                     	org	2097204
  7559  200034  FFFF               	dw	65535
  7560                           
  7561                           ;Config register IDLOC27 @ 0x200036
  7562                           ;	unspecified, using default values
  7563  200036                     	org	2097206
  7564  200036  FFFF               	dw	65535
  7565                           
  7566                           ;Config register IDLOC28 @ 0x200038
  7567                           ;	unspecified, using default values
  7568  200038                     	org	2097208
  7569  200038  FFFF               	dw	65535
  7570                           
  7571                           ;Config register IDLOC29 @ 0x20003A
  7572                           ;	unspecified, using default values
  7573  20003A                     	org	2097210
  7574  20003A  FFFF               	dw	65535
  7575                           
  7576                           ;Config register IDLOC30 @ 0x20003C
  7577                           ;	unspecified, using default values
  7578  20003C                     	org	2097212
  7579  20003C  FFFF               	dw	65535
  7580                           
  7581                           ;Config register IDLOC31 @ 0x20003E
  7582                           ;	unspecified, using default values
  7583  20003E                     	org	2097214
  7584  20003E  FFFF               	dw	65535
  7585                           
  7586                           ;Config register IDLOC32 @ 0x200040
  7587                           ;	unspecified, using default values
  7588  200040                     	org	2097216
  7589  200040  FFFF               	dw	65535
  7590                           
  7591                           ;Config register IDLOC33 @ 0x200042
  7592                           ;	unspecified, using default values
  7593  200042                     	org	2097218
  7594  200042  FFFF               	dw	65535
  7595                           
  7596                           ;Config register IDLOC34 @ 0x200044
  7597                           ;	unspecified, using default values
  7598  200044                     	org	2097220
  7599  200044  FFFF               	dw	65535
  7600                           
  7601                           ;Config register IDLOC35 @ 0x200046
  7602                           ;	unspecified, using default values
  7603  200046                     	org	2097222
  7604  200046  FFFF               	dw	65535
  7605                           
  7606                           ;Config register IDLOC36 @ 0x200048
  7607                           ;	unspecified, using default values
  7608  200048                     	org	2097224
  7609  200048  FFFF               	dw	65535
  7610                           
  7611                           ;Config register IDLOC37 @ 0x20004A
  7612                           ;	unspecified, using default values
  7613  20004A                     	org	2097226
  7614  20004A  FFFF               	dw	65535
  7615                           
  7616                           ;Config register IDLOC38 @ 0x20004C
  7617                           ;	unspecified, using default values
  7618  20004C                     	org	2097228
  7619  20004C  FFFF               	dw	65535
  7620                           
  7621                           ;Config register IDLOC39 @ 0x20004E
  7622                           ;	unspecified, using default values
  7623  20004E                     	org	2097230
  7624  20004E  FFFF               	dw	65535
  7625                           
  7626                           ;Config register IDLOC40 @ 0x200050
  7627                           ;	unspecified, using default values
  7628  200050                     	org	2097232
  7629  200050  FFFF               	dw	65535
  7630                           
  7631                           ;Config register IDLOC41 @ 0x200052
  7632                           ;	unspecified, using default values
  7633  200052                     	org	2097234
  7634  200052  FFFF               	dw	65535
  7635                           
  7636                           ;Config register IDLOC42 @ 0x200054
  7637                           ;	unspecified, using default values
  7638  200054                     	org	2097236
  7639  200054  FFFF               	dw	65535
  7640                           
  7641                           ;Config register IDLOC43 @ 0x200056
  7642                           ;	unspecified, using default values
  7643  200056                     	org	2097238
  7644  200056  FFFF               	dw	65535
  7645                           
  7646                           ;Config register IDLOC44 @ 0x200058
  7647                           ;	unspecified, using default values
  7648  200058                     	org	2097240
  7649  200058  FFFF               	dw	65535
  7650                           
  7651                           ;Config register IDLOC45 @ 0x20005A
  7652                           ;	unspecified, using default values
  7653  20005A                     	org	2097242
  7654  20005A  FFFF               	dw	65535
  7655                           
  7656                           ;Config register IDLOC46 @ 0x20005C
  7657                           ;	unspecified, using default values
  7658  20005C                     	org	2097244
  7659  20005C  FFFF               	dw	65535
  7660                           
  7661                           ;Config register IDLOC47 @ 0x20005E
  7662                           ;	unspecified, using default values
  7663  20005E                     	org	2097246
  7664  20005E  FFFF               	dw	65535
  7665                           
  7666                           ;Config register IDLOC48 @ 0x200060
  7667                           ;	unspecified, using default values
  7668  200060                     	org	2097248
  7669  200060  FFFF               	dw	65535
  7670                           
  7671                           ;Config register IDLOC49 @ 0x200062
  7672                           ;	unspecified, using default values
  7673  200062                     	org	2097250
  7674  200062  FFFF               	dw	65535
  7675                           
  7676                           ;Config register IDLOC50 @ 0x200064
  7677                           ;	unspecified, using default values
  7678  200064                     	org	2097252
  7679  200064  FFFF               	dw	65535
  7680                           
  7681                           ;Config register IDLOC51 @ 0x200066
  7682                           ;	unspecified, using default values
  7683  200066                     	org	2097254
  7684  200066  FFFF               	dw	65535
  7685                           
  7686                           ;Config register IDLOC52 @ 0x200068
  7687                           ;	unspecified, using default values
  7688  200068                     	org	2097256
  7689  200068  FFFF               	dw	65535
  7690                           
  7691                           ;Config register IDLOC53 @ 0x20006A
  7692                           ;	unspecified, using default values
  7693  20006A                     	org	2097258
  7694  20006A  FFFF               	dw	65535
  7695                           
  7696                           ;Config register IDLOC54 @ 0x20006C
  7697                           ;	unspecified, using default values
  7698  20006C                     	org	2097260
  7699  20006C  FFFF               	dw	65535
  7700                           
  7701                           ;Config register IDLOC55 @ 0x20006E
  7702                           ;	unspecified, using default values
  7703  20006E                     	org	2097262
  7704  20006E  FFFF               	dw	65535
  7705                           
  7706                           ;Config register IDLOC56 @ 0x200070
  7707                           ;	unspecified, using default values
  7708  200070                     	org	2097264
  7709  200070  FFFF               	dw	65535
  7710                           
  7711                           ;Config register IDLOC57 @ 0x200072
  7712                           ;	unspecified, using default values
  7713  200072                     	org	2097266
  7714  200072  FFFF               	dw	65535
  7715                           
  7716                           ;Config register IDLOC58 @ 0x200074
  7717                           ;	unspecified, using default values
  7718  200074                     	org	2097268
  7719  200074  FFFF               	dw	65535
  7720                           
  7721                           ;Config register IDLOC59 @ 0x200076
  7722                           ;	unspecified, using default values
  7723  200076                     	org	2097270
  7724  200076  FFFF               	dw	65535
  7725                           
  7726                           ;Config register IDLOC60 @ 0x200078
  7727                           ;	unspecified, using default values
  7728  200078                     	org	2097272
  7729  200078  FFFF               	dw	65535
  7730                           
  7731                           ;Config register IDLOC61 @ 0x20007A
  7732                           ;	unspecified, using default values
  7733  20007A                     	org	2097274
  7734  20007A  FFFF               	dw	65535
  7735                           
  7736                           ;Config register IDLOC62 @ 0x20007C
  7737                           ;	unspecified, using default values
  7738  20007C                     	org	2097276
  7739  20007C  FFFF               	dw	65535
  7740                           
  7741                           ;Config register IDLOC63 @ 0x20007E
  7742                           ;	unspecified, using default values
  7743  20007E                     	org	2097278
  7744  20007E  FFFF               	dw	65535
  7745                           
  7746                           ;Config register IDLOC64 @ 0x200080
  7747                           ;	unspecified, using default values
  7748  200080                     	org	2097280
  7749  200080  FFFF               	dw	65535
  7750                           
  7751                           ;Config register IDLOC65 @ 0x200082
  7752                           ;	unspecified, using default values
  7753  200082                     	org	2097282
  7754  200082  FFFF               	dw	65535
  7755                           
  7756                           ;Config register IDLOC66 @ 0x200084
  7757                           ;	unspecified, using default values
  7758  200084                     	org	2097284
  7759  200084  FFFF               	dw	65535
  7760                           
  7761                           ;Config register IDLOC67 @ 0x200086
  7762                           ;	unspecified, using default values
  7763  200086                     	org	2097286
  7764  200086  FFFF               	dw	65535
  7765                           
  7766                           ;Config register IDLOC68 @ 0x200088
  7767                           ;	unspecified, using default values
  7768  200088                     	org	2097288
  7769  200088  FFFF               	dw	65535
  7770                           
  7771                           ;Config register IDLOC69 @ 0x20008A
  7772                           ;	unspecified, using default values
  7773  20008A                     	org	2097290
  7774  20008A  FFFF               	dw	65535
  7775                           
  7776                           ;Config register IDLOC70 @ 0x20008C
  7777                           ;	unspecified, using default values
  7778  20008C                     	org	2097292
  7779  20008C  FFFF               	dw	65535
  7780                           
  7781                           ;Config register IDLOC71 @ 0x20008E
  7782                           ;	unspecified, using default values
  7783  20008E                     	org	2097294
  7784  20008E  FFFF               	dw	65535
  7785                           
  7786                           ;Config register IDLOC72 @ 0x200090
  7787                           ;	unspecified, using default values
  7788  200090                     	org	2097296
  7789  200090  FFFF               	dw	65535
  7790                           
  7791                           ;Config register IDLOC73 @ 0x200092
  7792                           ;	unspecified, using default values
  7793  200092                     	org	2097298
  7794  200092  FFFF               	dw	65535
  7795                           
  7796                           ;Config register IDLOC74 @ 0x200094
  7797                           ;	unspecified, using default values
  7798  200094                     	org	2097300
  7799  200094  FFFF               	dw	65535
  7800                           
  7801                           ;Config register IDLOC75 @ 0x200096
  7802                           ;	unspecified, using default values
  7803  200096                     	org	2097302
  7804  200096  FFFF               	dw	65535
  7805                           
  7806                           ;Config register IDLOC76 @ 0x200098
  7807                           ;	unspecified, using default values
  7808  200098                     	org	2097304
  7809  200098  FFFF               	dw	65535
  7810                           
  7811                           ;Config register IDLOC77 @ 0x20009A
  7812                           ;	unspecified, using default values
  7813  20009A                     	org	2097306
  7814  20009A  FFFF               	dw	65535
  7815                           
  7816                           ;Config register IDLOC78 @ 0x20009C
  7817                           ;	unspecified, using default values
  7818  20009C                     	org	2097308
  7819  20009C  FFFF               	dw	65535
  7820                           
  7821                           ;Config register IDLOC79 @ 0x20009E
  7822                           ;	unspecified, using default values
  7823  20009E                     	org	2097310
  7824  20009E  FFFF               	dw	65535
  7825                           
  7826                           ;Config register IDLOC80 @ 0x2000A0
  7827                           ;	unspecified, using default values
  7828  2000A0                     	org	2097312
  7829  2000A0  FFFF               	dw	65535
  7830                           
  7831                           ;Config register IDLOC81 @ 0x2000A2
  7832                           ;	unspecified, using default values
  7833  2000A2                     	org	2097314
  7834  2000A2  FFFF               	dw	65535
  7835                           
  7836                           ;Config register IDLOC82 @ 0x2000A4
  7837                           ;	unspecified, using default values
  7838  2000A4                     	org	2097316
  7839  2000A4  FFFF               	dw	65535
  7840                           
  7841                           ;Config register IDLOC83 @ 0x2000A6
  7842                           ;	unspecified, using default values
  7843  2000A6                     	org	2097318
  7844  2000A6  FFFF               	dw	65535
  7845                           
  7846                           ;Config register IDLOC84 @ 0x2000A8
  7847                           ;	unspecified, using default values
  7848  2000A8                     	org	2097320
  7849  2000A8  FFFF               	dw	65535
  7850                           
  7851                           ;Config register IDLOC85 @ 0x2000AA
  7852                           ;	unspecified, using default values
  7853  2000AA                     	org	2097322
  7854  2000AA  FFFF               	dw	65535
  7855                           
  7856                           ;Config register IDLOC86 @ 0x2000AC
  7857                           ;	unspecified, using default values
  7858  2000AC                     	org	2097324
  7859  2000AC  FFFF               	dw	65535
  7860                           
  7861                           ;Config register IDLOC87 @ 0x2000AE
  7862                           ;	unspecified, using default values
  7863  2000AE                     	org	2097326
  7864  2000AE  FFFF               	dw	65535
  7865                           
  7866                           ;Config register IDLOC88 @ 0x2000B0
  7867                           ;	unspecified, using default values
  7868  2000B0                     	org	2097328
  7869  2000B0  FFFF               	dw	65535
  7870                           
  7871                           ;Config register IDLOC89 @ 0x2000B2
  7872                           ;	unspecified, using default values
  7873  2000B2                     	org	2097330
  7874  2000B2  FFFF               	dw	65535
  7875                           
  7876                           ;Config register IDLOC90 @ 0x2000B4
  7877                           ;	unspecified, using default values
  7878  2000B4                     	org	2097332
  7879  2000B4  FFFF               	dw	65535
  7880                           
  7881                           ;Config register IDLOC91 @ 0x2000B6
  7882                           ;	unspecified, using default values
  7883  2000B6                     	org	2097334
  7884  2000B6  FFFF               	dw	65535
  7885                           
  7886                           ;Config register IDLOC92 @ 0x2000B8
  7887                           ;	unspecified, using default values
  7888  2000B8                     	org	2097336
  7889  2000B8  FFFF               	dw	65535
  7890                           
  7891                           ;Config register IDLOC93 @ 0x2000BA
  7892                           ;	unspecified, using default values
  7893  2000BA                     	org	2097338
  7894  2000BA  FFFF               	dw	65535
  7895                           
  7896                           ;Config register IDLOC94 @ 0x2000BC
  7897                           ;	unspecified, using default values
  7898  2000BC                     	org	2097340
  7899  2000BC  FFFF               	dw	65535
  7900                           
  7901                           ;Config register IDLOC95 @ 0x2000BE
  7902                           ;	unspecified, using default values
  7903  2000BE                     	org	2097342
  7904  2000BE  FFFF               	dw	65535
  7905                           
  7906                           ;Config register IDLOC96 @ 0x2000C0
  7907                           ;	unspecified, using default values
  7908  2000C0                     	org	2097344
  7909  2000C0  FFFF               	dw	65535
  7910                           
  7911                           ;Config register IDLOC97 @ 0x2000C2
  7912                           ;	unspecified, using default values
  7913  2000C2                     	org	2097346
  7914  2000C2  FFFF               	dw	65535
  7915                           
  7916                           ;Config register IDLOC98 @ 0x2000C4
  7917                           ;	unspecified, using default values
  7918  2000C4                     	org	2097348
  7919  2000C4  FFFF               	dw	65535
  7920                           
  7921                           ;Config register IDLOC99 @ 0x2000C6
  7922                           ;	unspecified, using default values
  7923  2000C6                     	org	2097350
  7924  2000C6  FFFF               	dw	65535
  7925                           
  7926                           ;Config register IDLOC100 @ 0x2000C8
  7927                           ;	unspecified, using default values
  7928  2000C8                     	org	2097352
  7929  2000C8  FFFF               	dw	65535
  7930                           
  7931                           ;Config register IDLOC101 @ 0x2000CA
  7932                           ;	unspecified, using default values
  7933  2000CA                     	org	2097354
  7934  2000CA  FFFF               	dw	65535
  7935                           
  7936                           ;Config register IDLOC102 @ 0x2000CC
  7937                           ;	unspecified, using default values
  7938  2000CC                     	org	2097356
  7939  2000CC  FFFF               	dw	65535
  7940                           
  7941                           ;Config register IDLOC103 @ 0x2000CE
  7942                           ;	unspecified, using default values
  7943  2000CE                     	org	2097358
  7944  2000CE  FFFF               	dw	65535
  7945                           
  7946                           ;Config register IDLOC104 @ 0x2000D0
  7947                           ;	unspecified, using default values
  7948  2000D0                     	org	2097360
  7949  2000D0  FFFF               	dw	65535
  7950                           
  7951                           ;Config register IDLOC105 @ 0x2000D2
  7952                           ;	unspecified, using default values
  7953  2000D2                     	org	2097362
  7954  2000D2  FFFF               	dw	65535
  7955                           
  7956                           ;Config register IDLOC106 @ 0x2000D4
  7957                           ;	unspecified, using default values
  7958  2000D4                     	org	2097364
  7959  2000D4  FFFF               	dw	65535
  7960                           
  7961                           ;Config register IDLOC107 @ 0x2000D6
  7962                           ;	unspecified, using default values
  7963  2000D6                     	org	2097366
  7964  2000D6  FFFF               	dw	65535
  7965                           
  7966                           ;Config register IDLOC108 @ 0x2000D8
  7967                           ;	unspecified, using default values
  7968  2000D8                     	org	2097368
  7969  2000D8  FFFF               	dw	65535
  7970                           
  7971                           ;Config register IDLOC109 @ 0x2000DA
  7972                           ;	unspecified, using default values
  7973  2000DA                     	org	2097370
  7974  2000DA  FFFF               	dw	65535
  7975                           
  7976                           ;Config register IDLOC110 @ 0x2000DC
  7977                           ;	unspecified, using default values
  7978  2000DC                     	org	2097372
  7979  2000DC  FFFF               	dw	65535
  7980                           
  7981                           ;Config register IDLOC111 @ 0x2000DE
  7982                           ;	unspecified, using default values
  7983  2000DE                     	org	2097374
  7984  2000DE  FFFF               	dw	65535
  7985                           
  7986                           ;Config register IDLOC112 @ 0x2000E0
  7987                           ;	unspecified, using default values
  7988  2000E0                     	org	2097376
  7989  2000E0  FFFF               	dw	65535
  7990                           
  7991                           ;Config register IDLOC113 @ 0x2000E2
  7992                           ;	unspecified, using default values
  7993  2000E2                     	org	2097378
  7994  2000E2  FFFF               	dw	65535
  7995                           
  7996                           ;Config register IDLOC114 @ 0x2000E4
  7997                           ;	unspecified, using default values
  7998  2000E4                     	org	2097380
  7999  2000E4  FFFF               	dw	65535
  8000                           
  8001                           ;Config register IDLOC115 @ 0x2000E6
  8002                           ;	unspecified, using default values
  8003  2000E6                     	org	2097382
  8004  2000E6  FFFF               	dw	65535
  8005                           
  8006                           ;Config register IDLOC116 @ 0x2000E8
  8007                           ;	unspecified, using default values
  8008  2000E8                     	org	2097384
  8009  2000E8  FFFF               	dw	65535
  8010                           
  8011                           ;Config register IDLOC117 @ 0x2000EA
  8012                           ;	unspecified, using default values
  8013  2000EA                     	org	2097386
  8014  2000EA  FFFF               	dw	65535
  8015                           
  8016                           ;Config register IDLOC118 @ 0x2000EC
  8017                           ;	unspecified, using default values
  8018  2000EC                     	org	2097388
  8019  2000EC  FFFF               	dw	65535
  8020                           
  8021                           ;Config register IDLOC119 @ 0x2000EE
  8022                           ;	unspecified, using default values
  8023  2000EE                     	org	2097390
  8024  2000EE  FFFF               	dw	65535
  8025                           
  8026                           ;Config register IDLOC120 @ 0x2000F0
  8027                           ;	unspecified, using default values
  8028  2000F0                     	org	2097392
  8029  2000F0  FFFF               	dw	65535
  8030                           
  8031                           ;Config register IDLOC121 @ 0x2000F2
  8032                           ;	unspecified, using default values
  8033  2000F2                     	org	2097394
  8034  2000F2  FFFF               	dw	65535
  8035                           
  8036                           ;Config register IDLOC122 @ 0x2000F4
  8037                           ;	unspecified, using default values
  8038  2000F4                     	org	2097396
  8039  2000F4  FFFF               	dw	65535
  8040                           
  8041                           ;Config register IDLOC123 @ 0x2000F6
  8042                           ;	unspecified, using default values
  8043  2000F6                     	org	2097398
  8044  2000F6  FFFF               	dw	65535
  8045                           
  8046                           ;Config register IDLOC124 @ 0x2000F8
  8047                           ;	unspecified, using default values
  8048  2000F8                     	org	2097400
  8049  2000F8  FFFF               	dw	65535
  8050                           
  8051                           ;Config register IDLOC125 @ 0x2000FA
  8052                           ;	unspecified, using default values
  8053  2000FA                     	org	2097402
  8054  2000FA  FFFF               	dw	65535
  8055                           
  8056                           ;Config register IDLOC126 @ 0x2000FC
  8057                           ;	unspecified, using default values
  8058  2000FC                     	org	2097404
  8059  2000FC  FFFF               	dw	65535
  8060                           
  8061                           ;Config register IDLOC127 @ 0x2000FE
  8062                           ;	unspecified, using default values
  8063  2000FE                     	org	2097406
  8064  2000FE  FFFF               	dw	65535
  8065                           
  8066                           	psect	config
  8067                           
  8068                           ;Config register CONFIG1L @ 0x300000
  8069                           ;	External Oscillator mode Selection bits
  8070                           ;	FEXTOSC = OFF, Oscillator not enabled
  8071                           ;	Power-up default value for COSC bits
  8072                           ;	RSTOSC = HFINTOSC_64MHZ, HFINTOSC with HFFRQ = 64 MHz and CDIV = 1:1
  8073  300000                     	org	3145728
  8074  300000  8C                 	db	140
  8075                           
  8076                           ;Config register CONFIG1H @ 0x300001
  8077                           ;	Clock Out Enable bit
  8078                           ;	CLKOUTEN = OFF, CLKOUT function is disabled
  8079                           ;	Clock Switch Enable bit
  8080                           ;	CSWEN = OFF, The NOSC and NDIV bits cannot be changed by user software
  8081                           ;	Fail-Safe Clock Monitor Enable bit
  8082                           ;	FCMEN = OFF, Fail-Safe Clock Monitor disabled
  8083  300001                     	org	3145729
  8084  300001  D7                 	db	215
  8085                           
  8086                           ;Config register CONFIG2L @ 0x300002
  8087                           ;	Master Clear Enable bit
  8088                           ;	MCLRE = INTMCLR, If LVP = 0, MCLR pin (RE3) is an input; If LVP =1, MCLR pin (RE3) is 
      +                          MCLR
  8089                           ;	Power-up Timer Enable bit
  8090                           ;	PWRTE = OFF, Power up timer disabled
  8091                           ;	Low-power BOR enable bit
  8092                           ;	LPBOREN = OFF, Low power BOR is disabled
  8093                           ;	Brown-out Reset Enable bits
  8094                           ;	BOREN = ON, Brown-out Reset enabled according to SBOREN
  8095  300002                     	org	3145730
  8096  300002  7E                 	db	126
  8097                           
  8098                           ;Config register CONFIG2H @ 0x300003
  8099                           ;	Brown Out Reset Voltage selection bits
  8100                           ;	BORV = VBOR_190, Brown-out Reset Voltage (VBOR) set to 1.90V
  8101                           ;	ZCD Disable bit
  8102                           ;	ZCD = OFF, ZCD disabled. ZCD can be enabled by setting the ZCDSEN bit of ZCDCON
  8103                           ;	PPSLOCK bit One-Way Set Enable bit
  8104                           ;	PPS1WAY = ON, PPSLOCK bit can be cleared and set only once; PPS registers remain locke
      +                          d after one clear/set cycle
  8105                           ;	Stack Full/Underflow Reset Enable bit
  8106                           ;	STVREN = ON, Stack full/underflow will cause Reset
  8107                           ;	Extended Instruction Set Enable bit
  8108                           ;	XINST = OFF, Extended Instruction Set and Indexed Addressing Mode disabled
  8109  300003                     	org	3145731
  8110  300003  FF                 	db	255
  8111                           
  8112                           ;Config register CONFIG3L @ 0x300004
  8113                           ;	WDT Period Select bits
  8114                           ;	WDTCPS = WDTCPS_31, Divider ratio 1:65536; software control of WDTPS
  8115                           ;	WDT operating mode
  8116                           ;	WDTE = OFF, WDT Disabled
  8117  300004                     	org	3145732
  8118  300004  9F                 	db	159
  8119                           
  8120                           ;Config register CONFIG3H @ 0x300005
  8121                           ;	WDT Window Select bits
  8122                           ;	WDTCWS = WDTCWS_7, window always open (100%); software control; keyed access not requi
      +                          red
  8123                           ;	WDT input clock selector
  8124                           ;	WDTCCS = SC, Software Control
  8125  300005                     	org	3145733
  8126  300005  FF                 	db	255
  8127                           
  8128                           ;Config register CONFIG4L @ 0x300006
  8129                           ;	Write Protection Block 0
  8130                           ;	WRT0 = OFF, Block 0 (000800-003FFFh) not write-protected
  8131                           ;	Write Protection Block 1
  8132                           ;	WRT1 = OFF, Block 1 (004000-007FFFh) not write-protected
  8133                           ;	Write Protection Block 2
  8134                           ;	WRT2 = OFF, Block 2 (008000-00BFFFh) not write-protected
  8135                           ;	Write Protection Block 3
  8136                           ;	WRT3 = OFF, Block 3 (00C000-00FFFFh) not write-protected
  8137                           ;	Write Protection Block 4
  8138                           ;	WRT4 = OFF, Block 4 (010000-013FFFh) not write-protected
  8139                           ;	Write Protection Block 5
  8140                           ;	WRT5 = OFF, Block 5 (014000-017FFFh) not write-protected
  8141                           ;	Write Protection Block 6
  8142                           ;	WRT6 = OFF, Block 6 (018000-01BFFFh) not write-protected
  8143                           ;	Write Protection Block 7
  8144                           ;	WRT7 = OFF, Block 7 (01C000-01FFFFh) not write-protected
  8145  300006                     	org	3145734
  8146  300006  FF                 	db	255
  8147                           
  8148                           ;Config register CONFIG4H @ 0x300007
  8149                           ;	Configuration Register Write Protection bit
  8150                           ;	WRTC = OFF, Configuration registers (300000-30000Bh) not write-protected
  8151                           ;	Boot Block Write Protection bit
  8152                           ;	WRTB = OFF, Boot Block (000000-0007FFh) not write-protected
  8153                           ;	Data EEPROM Write Protection bit
  8154                           ;	WRTD = OFF, Data EEPROM not write-protected
  8155                           ;	Scanner Enable bit
  8156                           ;	SCANE = OFF, Scanner module is NOT available for use, SCANMD bit is ignored
  8157                           ;	Low Voltage Programming Enable bit
  8158                           ;	LVP = OFF, HV on MCLR/VPP must be used for programming
  8159  300007                     	org	3145735
  8160  300007  CF                 	db	207
  8161                           
  8162                           ;Config register CONFIG5L @ 0x300008
  8163                           ;	UserNVM Program Memory Code Protection bit
  8164                           ;	CP = OFF, UserNVM code protection disabled
  8165                           ;	DataNVM Memory Code Protection bit
  8166                           ;	CPD = OFF, DataNVM code protection disabled
  8167  300008                     	org	3145736
  8168  300008  FF                 	db	255
  8169                           
  8170                           ;Config register CONFIG5H @ 0x300009
  8171                           ;	unspecified, using default values
  8172  300009                     	org	3145737
  8173  300009  FF                 	db	255
  8174                           
  8175                           ;Config register CONFIG6L @ 0x30000A
  8176                           ;	Table Read Protection Block 0
  8177                           ;	EBTR0 = OFF, Block 0 (000800-003FFFh) not protected from table reads executed in other
      +                           blocks
  8178                           ;	Table Read Protection Block 1
  8179                           ;	EBTR1 = OFF, Block 1 (004000-007FFFh) not protected from table reads executed in other
      +                           blocks
  8180                           ;	Table Read Protection Block 2
  8181                           ;	EBTR2 = OFF, Block 2 (008000-00BFFFh) not protected from table reads executed in other
      +                           blocks
  8182                           ;	Table Read Protection Block 3
  8183                           ;	EBTR3 = OFF, Block 3 (00C000-00FFFFh) not protected from table reads executed in other
      +                           blocks
  8184                           ;	Table Read Protection Block 4
  8185                           ;	EBTR4 = OFF, Block 4 (010000-013FFFh) not protected from table reads executed in other
      +                           blocks
  8186                           ;	Table Read Protection Block 5
  8187                           ;	EBTR5 = OFF, Block 5 (014000-017FFFh) not protected from table reads executed in other
      +                           blocks
  8188                           ;	Table Read Protection Block 6
  8189                           ;	EBTR6 = OFF, Block 6 (018000-01BFFFh) not protected from table reads executed in other
      +                           blocks
  8190                           ;	Table Read Protection Block 7
  8191                           ;	EBTR7 = OFF, Block 7 (01C000-01FFFFh) not protected from table reads executed in other
      +                           blocks
  8192  30000A                     	org	3145738
  8193  30000A  FF                 	db	255
  8194                           
  8195                           ;Config register CONFIG6H @ 0x30000B
  8196                           ;	Boot Block Table Read Protection bit
  8197                           ;	EBTRB = OFF, Boot Block (000000-0007FFh) not protected from table reads executed in ot
      +                          her blocks
  8198  30000B                     	org	3145739
  8199  30000B  FF                 	db	255
  8200                           tosu	equ	0xFFF
  8201                           tosh	equ	0xFFE
  8202                           tosl	equ	0xFFD
  8203                           stkptr	equ	0xFFC
  8204                           pclatu	equ	0xFFB
  8205                           pclath	equ	0xFFA
  8206                           pcl	equ	0xFF9
  8207                           tblptru	equ	0xFF8
  8208                           tblptrh	equ	0xFF7
  8209                           tblptrl	equ	0xFF6
  8210                           tablat	equ	0xFF5
  8211                           prodh	equ	0xFF4
  8212                           prodl	equ	0xFF3
  8213                           indf0	equ	0xFEF
  8214                           postinc0	equ	0xFEE
  8215                           postdec0	equ	0xFED
  8216                           preinc0	equ	0xFEC
  8217                           plusw0	equ	0xFEB
  8218                           fsr0h	equ	0xFEA
  8219                           fsr0l	equ	0xFE9
  8220                           wreg	equ	0xFE8
  8221                           indf1	equ	0xFE7
  8222                           postinc1	equ	0xFE6
  8223                           postdec1	equ	0xFE5
  8224                           preinc1	equ	0xFE4
  8225                           plusw1	equ	0xFE3
  8226                           fsr1h	equ	0xFE2
  8227                           fsr1l	equ	0xFE1
  8228                           bsr	equ	0xFE0
  8229                           indf2	equ	0xFDF
  8230                           postinc2	equ	0xFDE
  8231                           postdec2	equ	0xFDD
  8232                           preinc2	equ	0xFDC
  8233                           plusw2	equ	0xFDB
  8234                           fsr2h	equ	0xFDA
  8235                           fsr2l	equ	0xFD9
  8236                           status	equ	0xFD8

Data Sizes:
    Strings     0
    Constant    28
    Data        0
    BSS         32
    Persistent  0
    Stack       0

Auto Spaces:
    Space          Size  Autos    Used
    COMRAM           94     61      74
    BANK0           160     94     113
    BANK1           256      0       0
    BANK2           256      0       0
    BANK3           256      0       0
    BANK4           256      0       0
    BANK5           256      0       0
    BANK6           256      0       0
    BANK7           256      0       0
    BANK8           256      0       0
    BANK9           256      0       0
    BANK10          256      0       0
    BANK11          256      0       0
    BANK12          256      0       0
    BANK13          256      0       0
    BANK14           31      0       0

Pointer List with Targets:

    memset@dest	PTR void  size(2) Largest target is 10
		 -> RTC_Read@str(COMRAM[10]), 

    memset@s	PTR unsigned char  size(2) Largest target is 10
		 -> RTC_Read@str(COMRAM[10]), 

    atol@s	PTR const unsigned char  size(2) Largest target is 10
		 -> RTC_Read@str(COMRAM[10]), 

    sp__memset	PTR void  size(2) Largest target is 10
		 -> RTC_Read@str(COMRAM[10]), 


Critical Paths under _main in COMRAM

    None.

Critical Paths under _isr in COMRAM

    _isr->_RTC_Read
    _RTC_Read->_Convert_data
    _atol->i2___lmul
    _Convert_data->_atol
    i2___llmod->i2___lldiv

Critical Paths under _main in BANK0

    _init->_UART_Init
    _UART_Init->___fltol
    ___fltol->___fladd
    ___flmul->___xxtofl
    ___fldiv->___flmul
    ___fladd->___fldiv
    ___flge->___xxtofl
    _NTC_Write->_DGM_Effect
    _Duty_Control->_Set_PWM_Duty
    _DGM_Effect->___llmod
    _rand->___lmul
    ___llmod->___lldiv

Critical Paths under _isr in BANK0

    None.

Critical Paths under _main in BANK1

    None.

Critical Paths under _isr in BANK1

    None.

Critical Paths under _main in BANK2

    None.

Critical Paths under _isr in BANK2

    None.

Critical Paths under _main in BANK3

    None.

Critical Paths under _isr in BANK3

    None.

Critical Paths under _main in BANK4

    None.

Critical Paths under _isr in BANK4

    None.

Critical Paths under _main in BANK5

    None.

Critical Paths under _isr in BANK5

    None.

Critical Paths under _main in BANK6

    None.

Critical Paths under _isr in BANK6

    None.

Critical Paths under _main in BANK7

    None.

Critical Paths under _isr in BANK7

    None.

Critical Paths under _main in BANK8

    None.

Critical Paths under _isr in BANK8

    None.

Critical Paths under _main in BANK9

    None.

Critical Paths under _isr in BANK9

    None.

Critical Paths under _main in BANK10

    None.

Critical Paths under _isr in BANK10

    None.

Critical Paths under _main in BANK11

    None.

Critical Paths under _isr in BANK11

    None.

Critical Paths under _main in BANK12

    None.

Critical Paths under _isr in BANK12

    None.

Critical Paths under _main in BANK13

    None.

Critical Paths under _isr in BANK13

    None.

Critical Paths under _main in BANK14

    None.

Critical Paths under _isr in BANK14

    None.

Call Graph Tables:

 ---------------------------------------------------------------------------------
 (Depth) Function   	        Calls       Base Space   Used Autos Params    Refs
 ---------------------------------------------------------------------------------
 (0) _main                                                 2     2      0   19755
                                             92 BANK0      2     2      0
                         _DGM_Effect
                       _Duty_Control
                          _NTC_Write
                             _T0_int
                            _T0_int2
                             ___flge
                           ___xxtofl
                               _init
 ---------------------------------------------------------------------------------
 (1) _init                                                 0     0      0    7202
                       _Set_PWM_Duty
                          _UART_Init
 ---------------------------------------------------------------------------------
 (2) _UART_Init                                            2     0      2    6788
                                             90 BANK0      2     0      2
                            ___fladd
                            ___fldiv
                            ___flmul
                            ___fltol
                           ___xxtofl
 ---------------------------------------------------------------------------------
 (3) ___xxtofl                                            14    10      4     854
                                              0 BANK0     14    10      4
 ---------------------------------------------------------------------------------
 (3) ___fltol                                             10     6      4     305
                                             80 BANK0     10     6      4
                            ___fladd (ARG)
                            ___fldiv (ARG)
                            ___flmul (ARG)
                           ___xxtofl (ARG)
 ---------------------------------------------------------------------------------
 (3) ___flmul                                             25    17      8    1744
                                             14 BANK0     25    17      8
                           ___xxtofl (ARG)
 ---------------------------------------------------------------------------------
 (3) ___fldiv                                             25    17      8    1399
                                             39 BANK0     25    17      8
                            ___flmul (ARG)
                           ___xxtofl (ARG)
 ---------------------------------------------------------------------------------
 (3) ___fladd                                             16     8      8    2388
                                             64 BANK0     16     8      8
                            ___fldiv (ARG)
                            ___flmul (ARG)
                           ___xxtofl (ARG)
 ---------------------------------------------------------------------------------
 (1) ___flge                                              12     4      8    1094
                                             14 BANK0     12     4      8
                           ___xxtofl (ARG)
 ---------------------------------------------------------------------------------
 (1) _T0_int2                                              3     1      2      98
                                              0 BANK0      3     1      2
 ---------------------------------------------------------------------------------
 (1) _T0_int                                               3     1      2      98
                                              0 BANK0      3     1      2
 ---------------------------------------------------------------------------------
 (1) _NTC_Write                                           17    13      4    4131
                                             39 BANK0     17    13      4
                         _DGM_Effect (ARG)
                        _IC595_Write
                            ___lldiv
                            ___llmod
 ---------------------------------------------------------------------------------
 (2) _IC595_Write                                          9     6      3     166
                                              0 BANK0      9     6      3
 ---------------------------------------------------------------------------------
 (1) _Duty_Control                                         4     4      0     460
                                              5 BANK0      2     2      0
                       _Set_PWM_Duty
 ---------------------------------------------------------------------------------
 (2) _Set_PWM_Duty                                         5     3      2     414
                                              0 BANK0      5     3      2
 ---------------------------------------------------------------------------------
 (1) _DGM_Effect                                          17    12      5    5653
                                             22 BANK0     17    12      5
                            ___lldiv
                            ___llmod
                             ___lmul
                               _rand
 ---------------------------------------------------------------------------------
 (2) _rand                                                 6     4      2     974
                                             12 BANK0      6     4      2
                             ___lmul
 ---------------------------------------------------------------------------------
 (3) ___lmul                                              12     4      8     974
                                              0 BANK0     12     4      8
 ---------------------------------------------------------------------------------
 (2) ___llmod                                              9     1      8    2075
                                             13 BANK0      9     1      8
                            ___lldiv (ARG)
 ---------------------------------------------------------------------------------
 (2) ___lldiv                                             13     5      8    1274
                                              0 BANK0     13     5      8
 ---------------------------------------------------------------------------------
 Estimated maximum stack depth 3
 ---------------------------------------------------------------------------------
 (Depth) Function   	        Calls       Base Space   Used Autos Params    Refs
 ---------------------------------------------------------------------------------
 (4) _isr                                                  2     2      0    3410
                                             59 COMRAM     2     2      0
                           _RTC_Read
                          _UART_Read
 ---------------------------------------------------------------------------------
 (5) _UART_Read                                            0     0      0       0
 ---------------------------------------------------------------------------------
 (5) _RTC_Read                                             3     3      0    3410
                                             56 COMRAM     3     3      0
                       _Convert_data
                               _atol
                             _memset
 ---------------------------------------------------------------------------------
 (6) _memset                                              12     6      6     947
                                              0 COMRAM    12     6      6
 ---------------------------------------------------------------------------------
 (6) _atol                                                20    16      4    1013
                                             12 COMRAM    20    16      4
                            _isdigit
                            _isspace
                           i2___lmul
 ---------------------------------------------------------------------------------
 (7) _isspace                                              7     5      2     207
                                              0 COMRAM     7     5      2
 ---------------------------------------------------------------------------------
 (7) _isdigit                                              6     4      2     161
                                              0 COMRAM     6     4      2
 ---------------------------------------------------------------------------------
 (6) _Convert_data                                        24    20      4    1384
                                             32 COMRAM    24    20      4
                               _atol (ARG)
                          i2___lldiv
                          i2___llmod
                           i2___lmul
 ---------------------------------------------------------------------------------
 (7) i2___lmul                                            12     4      8     248
                                              0 COMRAM    12     4      8
 ---------------------------------------------------------------------------------
 (7) i2___llmod                                            9     1      8     523
                                             13 COMRAM     9     1      8
                          i2___lldiv (ARG)
 ---------------------------------------------------------------------------------
 (7) i2___lldiv                                           13     5      8     266
                                              0 COMRAM    13     5      8
 ---------------------------------------------------------------------------------
 Estimated maximum stack depth 7
 ---------------------------------------------------------------------------------

 Call Graph Graphs:

 _main (ROOT)
   _DGM_Effect
     ___lldiv
     ___llmod
       ___lldiv (ARG)
     ___lmul
     _rand
       ___lmul
   _Duty_Control
     _Set_PWM_Duty
   _NTC_Write
     _DGM_Effect (ARG)
     _IC595_Write (ARG)
     ___lldiv (ARG)
     ___llmod (ARG)
   _T0_int
   _T0_int2
   ___flge
     ___xxtofl (ARG)
   ___xxtofl
   _init
     _Set_PWM_Duty
     _UART_Init
       ___fladd
         ___fldiv (ARG)
           ___flmul (ARG)
             ___xxtofl (ARG)
           ___xxtofl (ARG)
         ___flmul (ARG)
         ___xxtofl (ARG)
       ___fldiv
       ___flmul
       ___fltol
         ___fladd (ARG)
         ___fldiv (ARG)
         ___flmul (ARG)
         ___xxtofl (ARG)
       ___xxtofl

 _isr (ROOT)
   _RTC_Read
     _Convert_data
       _atol (ARG)
         _isdigit
         _isspace
         i2___lmul
       i2___lldiv (ARG)
       i2___llmod (ARG)
         i2___lldiv (ARG)
       i2___lmul (ARG)
     _atol
     _memset
   _UART_Read

 Address spaces:
Name               Size   Autos  Total    Cost      Usage
BIGRAM             E1E      0       0      35        0.0%
EEDATA             400      0       0       0        0.0%
BITBANK13          100      0       0      31        0.0%
BANK13             100      0       0      32        0.0%
BITBANK12          100      0       0      29        0.0%
BANK12             100      0       0      30        0.0%
BITBANK11          100      0       0      27        0.0%
BANK11             100      0       0      28        0.0%
BITBANK10          100      0       0      25        0.0%
BANK10             100      0       0      26        0.0%
BITBANK9           100      0       0      23        0.0%
BANK9              100      0       0      24        0.0%
BITBANK8           100      0       0      21        0.0%
BANK8              100      0       0      22        0.0%
BITBANK7           100      0       0      19        0.0%
BANK7              100      0       0      20        0.0%
BITBANK6           100      0       0      17        0.0%
BANK6              100      0       0      18        0.0%
BITBANK5           100      0       0      15        0.0%
BANK5              100      0       0      16        0.0%
BITBANK4           100      0       0      13        0.0%
BANK4              100      0       0      14        0.0%
BITBANK3           100      0       0      11        0.0%
BANK3              100      0       0      12        0.0%
BITBANK2           100      0       0       9        0.0%
BANK2              100      0       0      10        0.0%
BITBANK1           100      0       0       7        0.0%
BANK1              100      0       0       8        0.0%
BITBANK0            A0      0       0       4        0.0%
BANK0               A0     5E      71       5       70.6%
BITCOMRAM           5E      0       0       0        0.0%
COMRAM              5E     3D      4A       1       78.7%
BITBANK14           1F      0       0      33        0.0%
BANK14              1F      0       0      34        0.0%
BITSFR_2             0      0       0     200        0.0%
SFR_2                0      0       0     200        0.0%
BITSFR_1             0      0       0     200        0.0%
SFR_1                0      0       0     200        0.0%
BITSFR               0      0       0     200        0.0%
SFR                  0      0       0     200        0.0%
STACK                0      0       0       2        0.0%
NULL                 0      0       0       0        0.0%
ABS                  0      0      BB       6        0.0%
DATA                 0      0      BB       3        0.0%
CODE                 0      0       0       0        0.0%


Microchip Technology PIC18 Macro Assembler V2.32 build 20210201212658 
Symbol Table                                                                                   Sat Apr 03 22:55:50 2021

            ___fldiv@aexp 009F              ___fldiv@bexp 009E              ___fldiv@sign 0097  
                     l109 2E70                       l207 3296                       l216 3532  
                     l161 2FC4                       l225 34E6                       l146 1C08  
                     l147 1E94                       l244 2F1A                       l194 291A  
                     l291 305A                       l275 33CE                       l276 33DE  
                     l198 336E                       l534 2DC2                       l199 3372  
                     l529 2D7C                       l801 13DE                       l561 2CBC  
                     l298 306A                       l809 1228                       l818 12F8  
                     l922 278A                       l691 3198                       l819 12E6  
                     l851 19CA                       l684 3188                       l860 1AB2  
                     l933 2722                       l846 1BA6                       l926 26C6  
                     l919 262E                       l792 110E                       l848 1A06  
                     l793 10FC                       l857 1A4C                       l794 10C2  
                     l882 180A                       l859 1AC4                       l885 169C  
                     l878 14A6                       l895 17CC                       l887 1714  
                     l888 1702                       l998 3306                       _RC6 007C76  
                     _isr 0008                       wreg 000FE8              ___flmul@aexp 007F  
            ___flmul@bexp 0080              ___flmul@sign 007A              ___flmul@temp 0085  
            ___flmul@prod 0081            Set_PWM_Duty@ch 0064              ___fltol@exp1 00B9  
                    l3000 2FA8                      l2200 103C                      l2130 3374  
                    l3002 2FB6                      l3010 34B8                      l2210 1050  
                    l2202 1040                      l2132 3386                      l3012 34D6  
                    l3004 349C                      l3100 2D2C                      l2300 12B6  
                    l2220 1064                      l2212 1054                      l2204 1044  
                    l2140 0F1E                      l2134 3394                      l3030 280C  
                    l3022 278C                      l3014 34DE                      l3006 34B0  
                    l3110 2DBA                      l3102 2D3C                      l2310 1308  
                    l2302 12BA                      l2230 10DC                      l2222 108E  
                    l2214 1058                      l2206 1048                      l2150 0F5C  
                    l2142 0F2C                      l2136 33A4                      l3032 2862  
                    l3024 279E                      l3040 1BA8                      l3008 34B4  
                    l3112 2DC0                      l3104 2D4A                      l2320 136E  
                    l2312 1314                      l2304 12C8                      l2240 111C  
                    l2232 10E0                      l2224 10AA                      l2216 105C  
                    l2208 104C                      l2160 0F8C                      l2152 0F6C  
                    l2144 0F3A                      l2400 1944                      l3120 2154  
                    l2138 33AE                      l3034 28B4                      l3026 27A2  
                    l3050 1E06                      l3042 1BB6                      l3018 34E4  
                    l3106 2D5C                      l2330 13B6                      l2322 137E  
                    l2314 1322                      l2306 12DE                      l2250 115E  
                    l2242 112C                      l2234 10EE                      l2226 10BA  
                    l2218 1060                      l2170 0FB6                      l2162 0F9E  
                    l2154 0F6E                      l2146 0F3C                      l2410 1996  
                    l2402 195E                      l3130 21B4                      l3122 2172  
                    l3036 290A                      l3028 27F4                      l3052 1E24  
                    l3044 1BD4                      l3108 2D6A                      l2332 13B8  
                    l2324 139E                      l2316 135C                      l2260 118C  
                    l2252 116C                      l2236 10F0                      l2228 10D0  
                    l2172 0FC6                      l2180 0FF0                      l2164 0FA0  
                    l2148 0F4C                      l2156 0F76                      l2420 19F2  
                    l2412 19A6                      l2404 196E                      l2500 1450  
                    l3140 2252                      l3132 21B6                      l3124 2176  
                    l3116 214A                      l3054 1E52                      l3046 1DC4  
                    l2334 13BE                      l2326 13A2                      l2318 135E  
                    l2270 11F8                      l2262 1196                      l2254 1178  
                    l2246 1140                      l2238 10FA                      l2190 1028  
                    l2182 1000                      l2174 0FD6                      l2166 0FA6  
                    l2158 0F86                      l2430 1A32                      l2422 19F4  
                    l2414 19BA                      l2406 197E                      l2350 183A  
                    l2342 180C                      l2510 1490                      l2502 145E  
                    l3150 2334                      l3142 2298                      l3134 21FC  
                    l3126 2184                      l3118 2150                      l3056 1E56  
                    l3048 1DD8                      l2336 13CC                      l2328 13B0  
                    l2272 1208                      l2256 117C                      l2248 1150  
                    l2264 119C                      l2192 102C                      l2184 1012  
                    l2176 0FE6                      l2168 0FB4                      l2440 1A6E  
                    l2432 1A3C                      l2424 1A04                      l2416 19C8  
                    l2408 198E                      l2360 1874                      l2352 184A  
                    l2344 181A                      l2600 17EE                      l2520 14DA  
                    l2512 1496                      l2504 1460                      l3152 233C  
                    l3144 22A0                      l3136 2204                      l3160 23C6  
                    l3128 21A2                      l3058 1E84                      l2338 13CE  
                    l2290 128A                      l2282 1262                      l2266 11C2  
                    l2274 1218                      l2258 118A                      l2194 1030  
                    l2186 1020                      l2178 0FE8                      l2450 1AE0  
                    l2442 1A7C                      l2434 1A4A                      l2426 1A16  
                    l2418 19D4                      l2370 18A0                      l2362 187A  
                    l2354 185A                      l2346 1828                      l2602 17F0  
                    l2530 152A                      l2522 14E6                      l2514 14B6  
                    l2506 1470                      l2610 2BB6                      l3154 2382  
                    l3146 22E6                      l3138 224A                      l3162 23DE  
                    l2292 1292                      l2284 126C                      l2276 123E  
                    l2268 11F6                      l2196 1034                      l2188 1024  
                    l2460 1B4C                      l2452 1AEE                      l2444 1AAA  
                    l2428 1A2C                      l2436 1A5C                      l2380 18DA  
                    l2372 18B0                      l2364 1880                      l2356 185C  
                    l2348 182A                      l2604 17F6                      l2540 156C  
                    l2532 1536                      l2524 14F0                      l2516 14C6  
                    l2508 1480                      l2620 2C0E                      l2612 2BCE  
                    l3164 23F0                      l3156 238A                      l3148 22EE  
                    l3238 3280                      l3094 2CBE                      l2294 1296  
                    l2286 127A                      l2278 124E                      l2198 1038  
                    l2470 1B9A                      l2462 1B66                      l2454 1B18  
                    l2438 1A6A                      l2382 18F0                      l2374 18C0  
                    l2366 188E                      l2358 1864                      l2606 17FA  
                    l2550 15CE                      l2542 1578                      l2534 1542  
                    l2526 1506                      l2622 2C1E                      l3158 2396  
                    l2800 334C                      l3096 2CEE                      l2296 12A6  
                    l2288 127C                      l2472 1B9C                      l2464 1B82  
                    l2448 1AD4                      l2456 1B1C                      l2384 1900  
                    l2392 1920                      l2376 18C2                      l2368 1890  
                    l2560 1664                      l2552 15DA                      l2544 1588  
                    l2536 1550                      l2528 1512                      l2480 13E0  
                    l2632 2C48                      l2624 2C22                      l2616 2BE2  
                    l2802 3352                      l3098 2CFE                      l2298 12A8  
                    l2466 1B86                      l2458 1B36                      l2394 1930  
                    l2386 1908                      l2378 18CA                      l2570 16BA  
                    l2562 1682                      l2554 15F6                      l2546 15A2  
                    l2538 155C                      l2490 141E                      l2482 13EE  
                    l2650 2CAC                      l2642 2C70                      l2634 2C52  
                    l2626 2C30                      l2618 2C0C                      l2900 2FC6  
                    l2468 1B94                      l2396 1930                      l2388 190C  
                    l2580 1724                      l2572 16BE                      l2564 168C  
                    l2556 1620                      l2548 15B2                      l2492 142E  
                    l2484 13FC                      l2644 2C7C                      l2636 2C5C  
                    l2660 263E                      l2910 3010                      l2902 2FD8  
                    l2590 1786                      l2582 1730                      l2574 16CC  
                    l2566 169A                      l2558 1656                      l2494 1434  
                    l2486 13FE                      l2646 2C8C                      l2670 267C  
                    l2662 2654                      l2654 25D8                      l2920 3054  
                    l2912 301A                      l2904 2FEE                      l2592 179A  
                    l2584 173E                      l2576 16FA                      l2568 16AC  
                    l2496 1444                      l2488 140E                      l2648 2C9C  
                    l2680 2704                      l2672 26AE                      l2656 25EA  
                    l2914 3038                      l2906 2FF6                      l2930 314A  
                    l2922 3110                      l2770 324A                      l2594 17B4  
                    l2586 1768                      l2498 144A                      l2690 275A  
                    l2682 2712                      l2674 26B0                      l2666 2668  
                    l2658 25F8                      l2916 3048                      l2908 3002  
                    l2932 3168                      l2924 3128                      l2772 3262  
                    l2764 3226                      l2596 17D0                      l2588 176C  
                    l2692 276A                      l2684 2730                      l2676 26BC  
                    l2668 2670                      l2940 2DF0                      l2918 304A  
                    l2934 3178                      l2926 3130                      l2766 322A  
                    l2598 17E0                      l2694 2778                      l2686 2732  
                    l2678 26F8                      l2782 2E72                      l2950 2E5E  
                    l2942 2E0C                      l2936 3182                      l2928 313C  
                    l2768 3242                      l2776 326A                      l2960 3500  
                    l2696 277A                      l2688 2736                      l2784 2E7A  
                    l2952 2E60                      l2944 2E1C                      l2794 3312  
                    l2962 3504                      l2970 3530                      l2786 2F16  
                    l2954 2E62                      l2946 2E20                      l2938 2DC4  
                    l2980 2F34                      l2796 3348                      l2788 3308  
                    l2964 3522                      l2956 34E8                      l2948 2E28  
                    l2894 3298                      l2990 2F76                      l2982 2F44  
                    l2974 2F1C                      l2798 334A                      l2966 352A  
                    l2958 34FC                      l2896 32D8                      l2992 2F7C  
                    l2984 2F48                      l2976 2F24                      l2994 2F8E  
                    l2986 2F5C                      l2978 2F32                      l2996 2F90  
                    l2988 2F64                      l2998 2FA2                      ?_isr 0001  
                    u2000 115E                      u2001 115A                      u2010 116C  
                    u2011 1168                      u2100 12B6                      u2020 118A  
                    u2101 12B2                      u2021 1186                      u2110 12C8  
                    u2030 11C2                      u2111 12C4                      u2031 11BE  
                    u2200 13B0                      u2120 12DE                      u2040 1208  
                    u2201 13AC                      u2121 12DA                      u2041 1204  
                    u2210 13CC                      u2130 12F4                      u2050 123E  
                    u2211 13C8                      u2131 12F0                      u2051 123A  
                    u2140 1308                      u2060 124E                      u2300 19A6  
                    u2220 1828                      u2141 1304                      u2061 124A  
                    u2301 19A2                      u2221 1824                      u2150 1322  
                    u2070 127A                      u2310 19C8                      u2230 183A  
                    u2151 131E                      u2071 1276                      u2311 19C4  
                    u2231 1836                      u3120 32F8                      u3200 3522  
                    u2160 135C                      u2080 128A                      u2400 1AD4  
                    u2320 19F2                      u2240 184A                      u3201 351E  
                    u2161 1358                      u2081 1286                      u2401 1AD0  
                    u2321 19EE                      u2241 1846                      u3130 2FEE  
                    u3210 2F32                      u2170 136E                      u2090 12A6  
                    u2410 1AEE                      u2330 1A16                      u2250 188E  
                    u3131 2FEA                      u3211 2F2E                      u2171 136A  
                    u2091 12A2                      u2411 1AEA                      u2331 1A12  
                    u2251 188A                      u3140 3010                      u3220 2F44  
                    u3300 1BD4                      u2180 137E                      u2420 1B36  
                    u2340 1A2C                      u2260 18A0                      u2500 1480  
                    u3141 300C                      u3125 32EE                      u3221 2F40  
                    u3301 1BD0                      u2181 137A                      u2421 1B32  
                    u2341 1A28                      u2261 189C                      u2501 147C  
                    u3150 3038                      u3230 2F5C                      u3310 1DF2  
                    u2190 139E                      u2430 1B66                      u2350 1A4A  
                    u2270 18B0                      u2510 14B6                      u3151 3034  
                    u3231 2F58                      u2191 139A                      u2431 1B62  
                    u2351 1A46                      u2271 18AC                      u2511 14B2  
                    u3160 3128                      u3240 2F76                      u3320 1E3E  
                    u3400 2D6A                      u2440 1B94                      u2360 1A6A  
                    u2280 18F0                      u2600 173E                      u2520 14C6  
                    u3161 3124                      u3241 2F72                      u3401 2D66  
                    u2441 1B90                      u2361 1A66                      u2281 18EC  
                    u2601 173A                      u2521 14C2                      u3170 314A  
                    u1810 3394                      u3250 2F8E                      u3330 1E70  
                    u3410 2DBA                      u2370 1A7C                      u2290 1930  
                    u2610 1786                      u2530 1640                      u2450 13FC  
                    _T2PR 000FBB                      u3171 3146                      u1811 3390  
                    u3251 2F8A                      u3315 1DEA                      u3411 2DB6  
                    u2371 1A78                      u2291 192C                      u2611 1782  
                    u2451 13F8                      u3180 3168                      u1820 33CE  
                    u3260 2FA2                      u1900 1012                      u2380 1AAA  
                    u2620 17B4                      u2540 169A                      u2460 140E  
                    u2700 2C9C                      u3500 2334                      u3420 2172  
                    u3181 3164                      u1821 33CA                      u3261 2F9E  
                    u3325 1E36                      u1901 100E                      u2381 1AA6  
                    u2621 17B0                      u2541 1696                      u2461 140A  
                    u2701 2C98                      u3501 2330                      u3421 216E  
                    u3190 34FC                      u3270 34B0                      u1910 1020  
                    u1830 0F3A                      u2390 1AC0                      u2630 17EE  
                    u2550 16BA                      u2470 141E                      u2710 25EA  
                    u3510 2382                      u3430 2184                      u3335 1E68  
                    u3191 34F8                      u3271 34AC                      u1911 101C  
                    u1831 0F36                      u2391 1ABC                      u2631 17EA  
                    u2551 16B6                      u2535 1636                      u2471 141A  
                    u2711 25E6                      u3511 237E                      u3431 2180  
                    u3280 34D6                      u1920 108E                      u1840 0F4C  
                    u2560 16CC                      u2480 145E                      u2640 2BCE  
                    u2800 2778                      u2720 25F8                      u3520 23F0  
                    u3440 21A2                      u3281 34D2                      u1921 108A  
                    u1841 0F48                      u2561 16C8                      u2481 145A  
                    u2641 2BCA                      u2801 2774                      u2721 25F4  
                    u3521 23EC                      u3441 219E                      u3290 279E  
                    u3370 2CEE                      u1930 10A6                      u1850 0F5C  
                    u2570 16FA                      u2490 1470                      u2650 2C02  
                    u2730 2654                      u3450 21B4                      u3291 279A  
                    u3371 2CEA                      u1931 10A0                      u1851 0F58  
                    u2571 16F6                      u2491 146C                      u2731 2650  
                    u3451 21B0                      u3380 2D2C                      u1940 10A8  
                    u1860 0F9E                      u2580 1710                      u2660 2C30  
                    u2740 26AA                      u3460 21FC                      u3381 2D28  
                    u1861 0F9A                      u2581 170C                      u2661 2C2C  
                    u2741 26A6                      u3461 21F8                      u3390 2D4A  
                    u1950 10D0                      u1870 0FB4                      u2590 1724  
                    u2670 2C44                      u2750 26F4                      u3470 224A  
                    u3391 2D46                      u1951 10CC                      u1871 0FB0  
                    u2591 1720                      u2671 2C40                      u2655 2BF8  
                    u2751 26F0                      u3471 2246                      u1960 10EE  
                    u1880 0FC6                      u2680 2C6C                      u2760 2712  
                    u3480 2298                      u1961 10EA                      u1881 0FC2  
                    u2681 2C68                      u2761 270E                      u3481 2294  
                    u2930 332E                      u1970 110E                      u1890 0FD6  
                    u2690 2C8C                      u2770 2722                      u3490 22E6  
                    u1971 110A                      u1891 0FD2                      u2691 2C88  
                    u2771 271E                      u3491 22E2                      _PEIE 007F96  
                    u2940 3346                      u1980 111C                      u2780 2730  
                    u2941 3340                      u1981 1118                      u2781 272C  
                    u1990 112C                      u2790 276A                      u2935 3326  
                    u1991 1128                      u2791 2766                      u2960 336E  
                    u2961 336A                      u2955 3348                      _RCIE 007605  
                    _RCIF 007645           __end_of_T0_int2 34E8            ??_Convert_data 0025  
                    _atol 23FC                      _main 214A                      _init 2DC4  
                    _rand 3298                      _seed 00CD                      fsr2h 000FDA  
                    indf2 000FDF                      fsr2l 000FD9                      btemp 004B  
                    prodh 000FF4                      prodl 000FF3                      start 0064  
         ___fldiv@new_exp 0098              ___param_bank 000000       __size_of_DGM_Effect 0190  
                   ??_isr 003C             ___fltol@sign1 00B8                     ?_atol 000D  
         __end_of___fladd 13E0                     ?_main 0001                     ?_init 0001  
         __end_of___fldiv 1BA8                     ?_rand 006C           __end_of___flmul 180C  
         __end_of___fltol 2CBE           __end_of___lldiv 306C           __end_of___llmod 319A  
                   _T2CON 000FBC                     _LATC1 007C21                     _LATC2 007C22  
                   _LATC3 007C23                     _LATC5 007C25                     i2l143 0058  
                   i2l261 35A2                     i2l183 2BB4                     i2l178 2AF0  
                   i2l291 30FE                     i2l275 3438                     i2l187 2070  
                   i2l276 3448                     i2l188 2148                     i2l298 310E  
                   i2l691 3220                     i2l684 3210                     i2l963 25C2  
                   i2l966 25D2                     i2l984 2A90                     i2l969 356A  
                   i2l977 349A                     _RCREG 000F98                     _RCSTA 000F9C  
                   _TMR0H 000FD3                     _TMR0L 000FD2                     _SPBRG 000F9A  
                   _TRISA 000F87                     _TRISB 000F88                     _TRISC 000F89  
            RTC_Read@data 003B                     _TXREG 000F99                     _TXSTA 000F9D  
     ___lmul@multiplicand 0064        __size_of_UART_Init 00AA        __size_of_UART_Read 0016  
                   _dgm_f 00CC        __size_of_NTC_Write 02EE           __end_of_isdigit 356C  
        __end_of_RTC_Read 2BB6                     atol@n 001D                     atol@s 000D  
         __end_of_isspace 349C                     tablat 000FF5          __end_ofi2___lmul 344A  
                   ttemp5 004C                     ttemp6 004F                     ttemp7 0053  
                   status 000FD8                     wtemp8 004C        __size_ofi2___lldiv 00A4  
      __size_ofi2___llmod 0088             ?_Duty_Control 0001           __initialization 356C  
       i2___lldiv@divisor 0005              __end_of_atol 25D4              __end_of_main 23FC  
            __end_of_init 2E72         i2___lldiv@counter 000D              __end_of_rand 3308  
        Set_PWM_Duty@duty 0060                    ??_atol 0011                    ??_main 00BC  
                  ??_init 00BC                    ??_rand 006E             __activetblptr 000003  
               ??_T0_int2 0062          ___llmod@dividend 006D                    _ANSELA 000F0C  
                  _ANSELB 000F14                    _ANSELC 000F1C                    _T0CON0 000FD4  
                  _T0CON1 000FD5                    _RC4PPS 000EF6                    _RC7PPS 000EF9  
                  i2l3060 2A94                    i2l3062 2A98                    i2l3240 2B1A  
                  i2l3072 2AE4                    i2l3064 2AAA                    i2l3242 24BA  
                  i2l3074 2AF0                    i2l3066 2AC6                    i2l3082 2B04  
                  i2l3170 002A                    i2l2700 344A                    i2l3068 2ACE  
                  i2l3084 2B60                    i2l3172 002C                    i2l2702 344E  
                  i2l3086 2B7C                    i2l3174 0042                    i2l3166 0012  
                  i2l2720 33FE                    i2l2712 3534                    i2l2704 3462  
                  i2l3088 2BAC                    i2l3176 0050                    i2l3168 0022  
                  i2l2730 3092                    i2l2722 340E                    i2l2706 3490  
                  i2l2810 2946                    i2l1930 358E                    i2l2740 30DC  
                  i2l2732 309A                    i2l2724 3418                    i2l2716 33E0  
                  i2l2708 3494                    i2l2820 29EE                    i2l2804 291C  
                  i2l1932 359C                    i2l2742 30EC                    i2l2734 30A6  
                  i2l2726 306C                    i2l2750 31B0                    i2l2718 33F0  
                  i2l2830 2A74                    i2l2822 2A1A                    i2l2814 297C  
                  i2l1934 35A0                    i2l2744 30EE                    i2l2736 30B4  
                  i2l2728 307C                    i2l2760 3200                    i2l2752 31B8  
                  i2l2840 241C                    i2l2832 2A7A                    i2l2816 29D4  
                  i2l2808 293A                    i2l2746 30F8                    i2l2738 30BE  
                  i2l2762 320A                    i2l2754 31C4                    i2l2842 2420  
                  i2l2834 2A7E                    i2l2826 2A34                    i2l2756 31D2  
                  i2l2748 319A                    i2l2860 24D0                    i2l2852 2478  
                  i2l2844 243A                    i2l2836 23FC                    i2l2828 2A68  
                  i2l2758 31F0                    i2l2870 257A                    i2l2854 248E  
                  i2l2846 246E                    i2l2838 2418                    i2l2880 1FF8  
                  i2l2872 258C                    i2l2864 252C                    i2l2856 2496  
                  i2l2848 2472                    i2l2882 2012                    i2l2890 20C0  
                  i2l2858 249E                    i2l2884 2018                    i2l2868 2568  
                  i2l2886 2030                    i2l2878 1E96                    i2l2888 20B0  
                  _OSCFRQ 000ED9                    _T0_int 34E8                    _TMR0IE 0075ED  
                  _TMR0IF 00762D                    _RX1PPS 000EB0          i2___lmul@product 0009  
        __end_of___xxtofl 278C            ??_Duty_Control 0065         __end_of_UART_Init 2F1C  
       __end_of_UART_Read 35A4                    ___flge 2CBE                    ___lmul 3374  
                  _g_t0_f 0040         __end_of_NTC_Write 1E96                 ??___fladd 00A8  
               ??___fldiv 008F                 ??___flmul 0076                 ??___fltol 00B4  
               ??___lldiv 0068                 ??___llmod 0075                    _g_time 00BE  
                  _memset 291C                    clear_0 3572                    clear_1 357E  
                  isa$std 000001             ?_Set_PWM_Duty 0060      __end_of_Convert_data 214A  
            IC595_Write@i 0067                 ??_isdigit 0003         __end_ofi2___lldiv 3110  
       __end_ofi2___llmod 3222              __mediumconst 0000                 ??_isspace 0003  
                  tblptrh 000FF7                    tblptrl 000FF6                    tblptru 000FF8  
            ??_DGM_Effect 007B                ___flge@ff1 006E                ___flge@ff2 0072  
            ___xxtofl@arg 006A              ___xxtofl@exp 0069              ___xxtofl@val 0060  
              __accesstop 0060   __end_of__initialization 3584             ___rparam_used 000001  
              ___fltol@f1 00B0         i2___llmod@divisor 0012         i2___llmod@counter 0016  
          __pcstackCOMRAM 0001        i2___lldiv@dividend 0001        __end_of_DGM_Effect 291C  
          ??_Set_PWM_Duty 0062                 ?_RTC_Read 0001                 ?i2___lmul 0001  
      i2___lldiv@quotient 0009                __pbssBANK0 00BE                   ?_T0_int 0060  
           ??_IC595_Write 0063               T0_int2@flag 00CA                   ?___flge 006E  
               T0_int@cnt 00C4                 T0_int@val 0060                   ?___lmul 0060  
                 ?_memset 0001            ___lmul@product 0068            DGM_Effect@data 0083  
              ??_RTC_Read 0039            DGM_Effect@time 0076                ??i2___lmul 0009  
               ?___xxtofl 0060      __end_of_Duty_Control 2FC6                   _OSCCON1 000ED3  
                 _T0_int2 349C                   _PWM3DCH 000FA3                   _PWM3DCL 000FA2  
                 _PWM4DCH 000FA0                   _PWM4DCL 000F9F                   _PWM3CON 000FA4  
                 _PWM4CON 000FA1                   _PPSLOCK 000E9B           __size_of_T0_int 004C  
        DGM_Effect@factor 0F01                   __Hparam 0000                   __Lparam 0000  
         Convert_data@min 0035           Convert_data@sec 002D       __end_of_IC595_Write 3374  
         __size_of___flge 0106                   ___fladd 0F1E                   ___fldiv 180C  
         __size_of___lmul 006C                   ___flmul 13E0                   ___fltol 2BB6  
   __size_of_Convert_data 02B4                   ___lldiv 2FC6                   ___llmod 3110  
            __psmallconst 0F00                   __pcinit 356C           __size_of_memset 0176  
                 __ramtop 0F00                   __ptext0 214A                   __ptext1 2DC4  
                 __ptext2 2E72                   __ptext3 25D4                   __ptext4 2BB6  
                 __ptext5 13E0                   __ptext6 180C                   __ptext7 0F1E  
                 __ptext8 2CBE                   __ptext9 349C                   _isdigit 3534  
            __size_of_isr 005C                ??___xxtofl 0064                   _isspace 344A  
                 atol@neg 0016                   main@cnt 00BD                   main@val 00BC  
    end_of_initialization 3584      __end_of_Set_PWM_Duty 3298                   memset@c 0003  
                 memset@k 0009                   memset@n 0005                   memset@s 000B  
            _Convert_data 1E96           ___lldiv@divisor 0064           ___lldiv@counter 006C  
                 postinc0 000FEE                   postinc2 000FDE       i2___lmul@multiplier 0001  
               _UART_Init 2E72                 _UART_Read 358E                 _NTC_Write 1BA8  
             ___fladd@grs 00AF             ___xxtofl@sign 0068               ___fldiv@grs 009A  
             ___fldiv@rem 0093                 i2___lldiv 306C                 i2___llmod 319A  
             ___flmul@grs 007B               _IC595_Write 3308        i2___llmod@dividend 000E  
          __end_of_T0_int 3534            __end_of___flge 2DC4            __end_of___lmul 33E0  
             RTC_Read@cnt 003E                ?_UART_Init 00BA                ?_UART_Read 0001  
             RTC_Read@str 0041     __size_of_Duty_Control 00AA                ?_NTC_Write 0087  
          __end_of_memset 2A92         __size_of_RTC_Read 0124       start_initialization 356C  
       __size_ofi2___lmul 006A               __end_of_isr 0064                ?i2___lldiv 0001  
              ?i2___llmod 000E                  ??_T0_int 0062           ___llmod@divisor 0071  
         ___llmod@counter 0075              _Duty_Control 2F1C                  ??___flge 0076  
                ??___lmul 0068               _CCPTMRSbits 000FAD                  ??_memset 0007  
              memset@dest 0001                 ___fladd@a 00A4                 ___fladd@b 00A0  
               ___fldiv@a 008B                 ___fldiv@b 0087  __end_ofDGM_Effect@factor 0F1D  
               ___flmul@a 0072                 ___flmul@b 006E               __pbssCOMRAM 003E  
           __pcstackBANK0 0060                  ?_T0_int2 0060         __size_of___xxtofl 01B8  
   __size_of_Set_PWM_Duty 0076           Duty_Control@led 00C8           Duty_Control@ntc 00C6  
              T0_int2@cnt 00C2                T0_int2@val 0060                 __pintcode 0008  
           UART_Init@baud 00BA                  ?___fladd 00A0                  ?___fldiv 0087  
                ?___flmul 006E                T0_int@flag 00CB                  ?___fltol 00B0  
                ?___lldiv 0060             DGM_Effect@val 007A                  ?___llmod 006D  
             ??_UART_Init 00BC               ??_UART_Read 0001               ??_NTC_Write 008B  
            _Set_PWM_Duty 3222               __smallconst 0F00                  ?_isdigit 0001  
                ?_isspace 0001               ??i2___lldiv 0009                  _T2CLKCON 000FBE  
             ??i2___llmod 0016                  i2u300_40 2A30                  i2u300_41 2A2C  
                i2u301_40 2A90                  i2u301_41 2A8C                  i2u310_40 2012  
                i2u302_40 243A                  i2u310_41 200E                  i2u302_41 2436  
                i2u311_40 2030                  i2u303_40 246E                  i2u311_41 202C  
                i2u303_41 246A                  i2u304_40 248A                  i2u304_41 2486  
                i2u305_40 2562                  i2u305_41 255C                  i2u306_40 2564  
                i2u154_40 359C                  i2u154_41 3598                  i2u307_40 257A  
                i2u307_41 2576                  i2u308_40 258C                  i2u308_41 2588  
                i2u309_40 1FF8                  i2u309_41 1FF4                  i2u334_40 2AAA  
                i2u334_41 2AA6                  i2u335_40 2AE0                  i2u335_41 2ADC  
                i2u336_40 2B7C                  i2u336_41 2B78                  i2u281_40 3462  
                i2u353_40 0022                  i2u281_41 345E                  i2u353_41 001E  
                i2u290_40 31B0                  i2u282_40 3490                  i2u354_40 003E  
                i2u290_41 31AC                  i2u282_41 348C                  i2u354_41 0038  
                i2u291_40 31D2                  i2u283_40 3564                  i2u355_40 0040  
                i2u291_41 31CE                  i2u283_41 355E                  i2u292_40 31F0  
                i2u284_40 3566                  i2u356_40 0050                  i2u292_41 31EC  
                i2u356_41 004C                  i2u285_40 33FE                  i2u285_41 33FA  
                i2u286_40 3438                  i2u286_41 3434                  i2u287_40 3092  
                i2u287_41 308E                  i2u288_40 30B4                  i2u288_41 30B0  
                i2u289_40 30DC                  i2u297_40 2936                  i2u289_41 30D8  
                i2u297_41 2932                  i2u298_40 2978                  i2u298_41 2974  
                i2u299_40 29EA                  i2u299_41 29E6                  _RTC_Read 2A92  
                i2___lmul 33E0          __size_of_T0_int2 004C         ___lmul@multiplier 0060  
           NTC_Write@data 0087           _DGM_Effect$1004 007F              ?_IC595_Write 0060  
           NTC_Write@buff 008F           IC595_Write@data 0060             NTC_Write@temp 0095  
                __Hrparam 0000          Convert_data@data 0021          Convert_data@hour 0031  
                __Lrparam 0000          __size_of___fladd 04C2          __size_of___fldiv 039C  
        __size_of___flmul 042C          __size_of___fltol 0108          __size_of___lldiv 00A6  
        __size_of___llmod 008A                  ___xxtofl 25D4                  _atol$783 0018  
                _atol$784 001C                  _atol$785 001A          __size_of_isdigit 0038  
        __size_of_isspace 0052                  __ptext10 34E8                  __ptext11 1BA8  
                __ptext12 3308                  __ptext21 358E                  __ptext13 2F1C  
                __ptext30 306C                  __ptext22 2A92                  __ptext14 3222  
                __ptext23 291C                  __ptext15 278C                  __ptext24 23FC  
                __ptext16 3298                  __ptext25 344A                  __ptext17 3374  
                __ptext26 3534                  __ptext18 3110                  __ptext27 1E96  
                __ptext19 2FC6                  __ptext28 33E0                  __ptext29 319A  
              _DGM_Effect 278C             __size_of_atol 01D8             __size_of_main 02B2  
           __size_of_init 00AE             __size_of_rand 0070                _RC1STAbits 000F9C  
                isa$xinst 000000                  int$flags 004B               _isspace$801 0007  
              _INTCONbits 000FF2     i2___lmul@multiplicand 0005                  isdigit@c 0001  
                intlevel2 0000                  isspace@c 0001          ___lldiv@dividend 0060  
        ___lldiv@quotient 0068               ?_DGM_Effect 0076                _TX1STAbits 000F9D  
           ___fladd@signs 00AC              ___fladd@aexp 00AD              ___fladd@bexp 00AE  
           ?_Convert_data 0021     Duty_Control@ntc_limit 0065      __size_of_IC595_Write 006C  
